
lab3-extra-test.elf:     file format elf64-littleriscv


Disassembly of section .text:

0000000080000000 <_binary_lab4_test_bin_start>:
    80000000:	0000e0b7          	lui	x1,0xe
    80000004:	0440809b          	addiw	x1,x1,68 # e044 <_binary_lab4_test_bin_size-0x120cc>
    80000008:	30009073          	csrw	mstatus,x1
    8000000c:	400108b7          	lui	x17,0x40010
    80000010:	011888b3          	add	x17,x17,x17
    80000014:	10088893          	addi	x17,x17,256 # 40010100 <_binary_lab4_test_bin_size+0x3ffefff0>
    80000018:	f1488ca3          	sb	x20,-231(x17)
    8000001c:	341892f3          	csrrw	x5,mepc,x17
    80000020:	40010c37          	lui	x24,0x40010
    80000024:	018c0c33          	add	x24,x24,x24
    80000028:	100c0c13          	addi	x24,x24,256 # 40010100 <_binary_lab4_test_bin_size+0x3ffefff0>
    8000002c:	f76c1103          	lh	x2,-138(x24)
    80000030:	009173b3          	and	x7,x2,x9
    80000034:	01944733          	xor	x14,x8,x25
    80000038:	40010937          	lui	x18,0x40010
    8000003c:	01290933          	add	x18,x18,x18
    80000040:	07096183          	lwu	x3,112(x18) # 40010070 <_binary_lab4_test_bin_size+0x3ffeff60>
    80000044:	403782bb          	subw	x5,x15,x3
    80000048:	00e74fb3          	xor	x31,x14,x14
    8000004c:	2d97081b          	addiw	x16,x14,729
    80000050:	40010e37          	lui	x28,0x40010
    80000054:	01ce0e33          	add	x28,x28,x28
    80000058:	100e0e13          	addi	x28,x28,256 # 40010100 <_binary_lab4_test_bin_size+0x3ffefff0>
    8000005c:	f3ae0383          	lb	x7,-198(x28)
    80000060:	01c683bb          	addw	x7,x13,x28
    80000064:	486ec493          	xori	x9,x29,1158
    80000068:	016b8cbb          	addw	x25,x23,x22
    8000006c:	40010bb7          	lui	x23,0x40010
    80000070:	017b8bb3          	add	x23,x23,x23
    80000074:	100b8b93          	addi	x23,x23,256 # 40010100 <_binary_lab4_test_bin_size+0x3ffefff0>
    80000078:	f26b8423          	sb	x6,-216(x23)
    8000007c:	6034071b          	addiw	x14,x8,1539
    80000080:	3041e473          	csrrsi	x8,mie,3
    80000084:	91f6831b          	addiw	x6,x13,-1761
    80000088:	413b88b3          	sub	x17,x23,x19
    8000008c:	00614f33          	xor	x30,x2,x6
    80000090:	342455f3          	csrrwi	x11,mcause,8
    80000094:	40010eb7          	lui	x29,0x40010
    80000098:	01de8eb3          	add	x29,x29,x29
    8000009c:	066eb423          	sd	x6,104(x29) # 40010068 <_binary_lab4_test_bin_size+0x3ffeff58>
    800000a0:	34201773          	csrrw	x14,mcause,x0
    800000a4:	404183bb          	subw	x7,x3,x4
    800000a8:	342c5373          	csrrwi	x6,mcause,24
    800000ac:	400104b7          	lui	x9,0x40010
    800000b0:	009484b3          	add	x9,x9,x9
    800000b4:	10048493          	addi	x9,x9,256 # 40010100 <_binary_lab4_test_bin_size+0x3ffefff0>
    800000b8:	f504b983          	ld	x19,-176(x9)
    800000bc:	40010d37          	lui	x26,0x40010
    800000c0:	01ad0d33          	add	x26,x26,x26
    800000c4:	100d0d13          	addi	x26,x26,256 # 40010100 <_binary_lab4_test_bin_size+0x3ffefff0>
    800000c8:	f74d2283          	lw	x5,-140(x26)
    800000cc:	3433e273          	csrrsi	x4,mtval,7
    800000d0:	de5fe593          	ori	x11,x31,-539
    800000d4:	00a14b33          	xor	x22,x2,x10
    800000d8:	40010b37          	lui	x22,0x40010
    800000dc:	016b0b33          	add	x22,x22,x22
    800000e0:	0a8b3903          	ld	x18,168(x22) # 400100a8 <_binary_lab4_test_bin_size+0x3ffeff98>
    800000e4:	1f206913          	ori	x18,x0,498
    800000e8:	341fed73          	csrrsi	x26,mepc,31
    800000ec:	34277273          	csrrci	x4,mcause,14
    800000f0:	da268093          	addi	x1,x13,-606
    800000f4:	40010bb7          	lui	x23,0x40010
    800000f8:	017b8bb3          	add	x23,x23,x23
    800000fc:	08cbef03          	lwu	x30,140(x23) # 4001008c <_binary_lab4_test_bin_size+0x3ffeff7c>
    80000100:	01ea6db3          	or	x27,x20,x30
    80000104:	6b367213          	andi	x4,x12,1715
    80000108:	008f8cb3          	add	x25,x31,x8
    8000010c:	0fb58a9b          	addiw	x21,x11,251
    80000110:	01b48b33          	add	x22,x9,x27
    80000114:	304e64f3          	csrrsi	x9,mie,28
    80000118:	400108b7          	lui	x17,0x40010
    8000011c:	011888b3          	add	x17,x17,x17
    80000120:	0018bc23          	sd	x1,24(x17) # 40010018 <_binary_lab4_test_bin_size+0x3ffeff08>
    80000124:	342950f3          	csrrwi	x1,mcause,18
    80000128:	40010db7          	lui	x27,0x40010
    8000012c:	01bd8db3          	add	x27,x27,x27
    80000130:	100d8d93          	addi	x27,x27,256 # 40010100 <_binary_lab4_test_bin_size+0x3ffefff0>
    80000134:	f80db303          	ld	x6,-128(x27)
    80000138:	40010fb7          	lui	x31,0x40010
    8000013c:	01ff8fb3          	add	x31,x31,x31
    80000140:	072f8b03          	lb	x22,114(x31) # 40010072 <_binary_lab4_test_bin_size+0x3ffeff62>
    80000144:	9aed839b          	addiw	x7,x27,-1618
    80000148:	ed73e993          	ori	x19,x7,-297
    8000014c:	01957633          	and	x12,x10,x25
    80000150:	d4ab4e93          	xori	x29,x22,-694
    80000154:	400100b7          	lui	x1,0x40010
    80000158:	001080b3          	add	x1,x1,x1
    8000015c:	02b09623          	sh	x11,44(x1) # 4001002c <_binary_lab4_test_bin_size+0x3ffeff1c>
    80000160:	40010b37          	lui	x22,0x40010
    80000164:	016b0b33          	add	x22,x22,x22
    80000168:	06cb01a3          	sb	x12,99(x22) # 40010063 <_binary_lab4_test_bin_size+0x3ffeff53>
    8000016c:	40010237          	lui	x4,0x40010
    80000170:	00420233          	add	x4,x4,x4
    80000174:	10020213          	addi	x4,x4,256 # 40010100 <_binary_lab4_test_bin_size+0x3ffefff0>
    80000178:	fc023583          	ld	x11,-64(x4) # ffffffffffffffc0 <_binary_lab4_test_bin_end+0xffffffff7ffdfeb0>
    8000017c:	2a950993          	addi	x19,x10,681
    80000180:	40010d37          	lui	x26,0x40010
    80000184:	01ad0d33          	add	x26,x26,x26
    80000188:	100d0d13          	addi	x26,x26,256 # 40010100 <_binary_lab4_test_bin_size+0x3ffefff0>
    8000018c:	f00d6e83          	lwu	x29,-256(x26)
    80000190:	01dac933          	xor	x18,x21,x29
    80000194:	40010eb7          	lui	x29,0x40010
    80000198:	01de8eb3          	add	x29,x29,x29
    8000019c:	08cee703          	lwu	x14,140(x29) # 4001008c <_binary_lab4_test_bin_size+0x3ffeff7c>
    800001a0:	3427d373          	csrrwi	x6,mcause,15
    800001a4:	00c86ab3          	or	x21,x16,x12
    800001a8:	00c00d33          	add	x26,x0,x12
    800001ac:	4ddc6a93          	ori	x21,x24,1245
    800001b0:	40010137          	lui	x2,0x40010
    800001b4:	00210133          	add	x2,x2,x2
    800001b8:	0d816f83          	lwu	x31,216(x2) # 400100d8 <_binary_lab4_test_bin_size+0x3ffeffc8>
    800001bc:	ca938f9b          	addiw	x31,x7,-855
    800001c0:	40010cb7          	lui	x25,0x40010
    800001c4:	019c8cb3          	add	x25,x25,x25
    800001c8:	100c8c93          	addi	x25,x25,256 # 40010100 <_binary_lab4_test_bin_size+0x3ffefff0>
    800001cc:	f96cae23          	sw	x22,-100(x25)
    800001d0:	0192c9b3          	xor	x19,x5,x25
    800001d4:	01abc133          	xor	x2,x23,x26
    800001d8:	67e47a93          	andi	x21,x8,1662
    800001dc:	ad6f7213          	andi	x4,x30,-1322
    800001e0:	40010d37          	lui	x26,0x40010
    800001e4:	01ad0d33          	add	x26,x26,x26
    800001e8:	0a0d2b83          	lw	x23,160(x26) # 400100a0 <_binary_lab4_test_bin_size+0x3ffeff90>
    800001ec:	0179c433          	xor	x8,x19,x23
    800001f0:	40010737          	lui	x14,0x40010
    800001f4:	00e70733          	add	x14,x14,x14
    800001f8:	10070713          	addi	x14,x14,256 # 40010100 <_binary_lab4_test_bin_size+0x3ffefff0>
    800001fc:	f6a75c03          	lhu	x24,-150(x14)
    80000200:	01a36c33          	or	x24,x6,x26
    80000204:	a719e993          	ori	x19,x19,-1423
    80000208:	40010e37          	lui	x28,0x40010
    8000020c:	01ce0e33          	add	x28,x28,x28
    80000210:	0d8e5303          	lhu	x6,216(x28) # 400100d8 <_binary_lab4_test_bin_size+0x3ffeffc8>
    80000214:	006173b3          	and	x7,x2,x6
    80000218:	40010fb7          	lui	x31,0x40010
    8000021c:	01ff8fb3          	add	x31,x31,x31
    80000220:	100f8f93          	addi	x31,x31,256 # 40010100 <_binary_lab4_test_bin_size+0x3ffefff0>
    80000224:	fb0fb503          	ld	x10,-80(x31)
    80000228:	40a98d3b          	subw	x26,x19,x10
    8000022c:	00b10dbb          	addw	x27,x2,x11
    80000230:	304b1a73          	csrrw	x20,mie,x22
    80000234:	343b6673          	csrrsi	x12,mtval,22
    80000238:	3443e873          	csrrsi	x16,mip,7
    8000023c:	40010637          	lui	x12,0x40010
    80000240:	00c60633          	add	x12,x12,x12
    80000244:	10060613          	addi	x12,x12,256 # 40010100 <_binary_lab4_test_bin_size+0x3ffefff0>
    80000248:	f9363c23          	sd	x19,-104(x12)
    8000024c:	304c5073          	csrwi	mie,24
    80000250:	a4ec6613          	ori	x12,x24,-1458
    80000254:	400105b7          	lui	x11,0x40010
    80000258:	00b585b3          	add	x11,x11,x11
    8000025c:	10058593          	addi	x11,x11,256 # 40010100 <_binary_lab4_test_bin_size+0x3ffefff0>
    80000260:	fcc5a283          	lw	x5,-52(x11)
    80000264:	005702b3          	add	x5,x14,x5
    80000268:	01116f33          	or	x30,x2,x17
    8000026c:	012779b3          	and	x19,x14,x18
    80000270:	72d8cd13          	xori	x26,x17,1837
    80000274:	40010eb7          	lui	x29,0x40010
    80000278:	01de8eb3          	add	x29,x29,x29
    8000027c:	0b0edf83          	lhu	x31,176(x29) # 400100b0 <_binary_lab4_test_bin_size+0x3ffeffa0>
    80000280:	01ff8ebb          	addw	x29,x31,x31
    80000284:	01bdeb33          	or	x22,x27,x27
    80000288:	400104b7          	lui	x9,0x40010
    8000028c:	009484b3          	add	x9,x9,x9
    80000290:	0664d503          	lhu	x10,102(x9) # 40010066 <_binary_lab4_test_bin_size+0x3ffeff56>
    80000294:	00750abb          	addw	x21,x10,x7
    80000298:	f4e4081b          	addiw	x16,x8,-178
    8000029c:	b8a6049b          	addiw	x9,x12,-1142
    800002a0:	01a5c2b3          	xor	x5,x11,x26
    800002a4:	dee56b13          	ori	x22,x10,-530
    800002a8:	acc16e13          	ori	x28,x2,-1332
    800002ac:	40010cb7          	lui	x25,0x40010
    800002b0:	019c8cb3          	add	x25,x25,x25
    800002b4:	100c8c93          	addi	x25,x25,256 # 40010100 <_binary_lab4_test_bin_size+0x3ffefff0>
    800002b8:	ffecd183          	lhu	x3,-2(x25)
    800002bc:	80cffd93          	andi	x27,x31,-2036
    800002c0:	400108b7          	lui	x17,0x40010
    800002c4:	011888b3          	add	x17,x17,x17
    800002c8:	0a18ae23          	sw	x1,188(x17) # 400100bc <_binary_lab4_test_bin_size+0x3ffeffac>
    800002cc:	40a40b33          	sub	x22,x8,x10
    800002d0:	01e00a33          	add	x20,x0,x30
    800002d4:	40010bb7          	lui	x23,0x40010
    800002d8:	017b8bb3          	add	x23,x23,x23
    800002dc:	100b8b93          	addi	x23,x23,256 # 40010100 <_binary_lab4_test_bin_size+0x3ffefff0>
    800002e0:	f12b9e83          	lh	x29,-238(x23)
    800002e4:	98764e93          	xori	x29,x12,-1657
    800002e8:	00844d33          	xor	x26,x8,x8
    800002ec:	0171c1b3          	xor	x3,x3,x23
    800002f0:	40010c37          	lui	x24,0x40010
    800002f4:	018c0c33          	add	x24,x24,x24
    800002f8:	100c0c13          	addi	x24,x24,256 # 40010100 <_binary_lab4_test_bin_size+0x3ffefff0>
    800002fc:	f76c5883          	lhu	x17,-138(x24)
    80000300:	011febb3          	or	x23,x31,x17
    80000304:	343772f3          	csrrci	x5,mtval,14
    80000308:	40010f37          	lui	x30,0x40010
    8000030c:	01ef0f33          	add	x30,x30,x30
    80000310:	096f3023          	sd	x22,128(x30) # 40010080 <_binary_lab4_test_bin_size+0x3ffeff70>
    80000314:	40010d37          	lui	x26,0x40010
    80000318:	01ad0d33          	add	x26,x26,x26
    8000031c:	100d0d13          	addi	x26,x26,256 # 40010100 <_binary_lab4_test_bin_size+0x3ffefff0>
    80000320:	f94d2383          	lw	x7,-108(x26)
    80000324:	c1fd4613          	xori	x12,x26,-993
    80000328:	400109b7          	lui	x19,0x40010
    8000032c:	013989b3          	add	x19,x19,x19
    80000330:	0909e983          	lwu	x19,144(x19) # 40010090 <_binary_lab4_test_bin_size+0x3ffeff80>
    80000334:	40010137          	lui	x2,0x40010
    80000338:	00210133          	add	x2,x2,x2
    8000033c:	10010113          	addi	x2,x2,256 # 40010100 <_binary_lab4_test_bin_size+0x3ffefff0>
    80000340:	fcd14e03          	lbu	x28,-51(x2)
    80000344:	094c0d13          	addi	x26,x24,148
    80000348:	40010bb7          	lui	x23,0x40010
    8000034c:	017b8bb3          	add	x23,x23,x23
    80000350:	0d0b9603          	lh	x12,208(x23) # 400100d0 <_binary_lab4_test_bin_size+0x3ffeffc0>
    80000354:	01284633          	xor	x12,x16,x18
    80000358:	34446873          	csrrsi	x16,mip,8
    8000035c:	40010737          	lui	x14,0x40010
    80000360:	00e70733          	add	x14,x14,x14
    80000364:	10070713          	addi	x14,x14,256 # 40010100 <_binary_lab4_test_bin_size+0x3ffefff0>
    80000368:	f8a71b03          	lh	x22,-118(x14)
    8000036c:	400104b7          	lui	x9,0x40010
    80000370:	009484b3          	add	x9,x9,x9
    80000374:	05049e03          	lh	x28,80(x9) # 40010050 <_binary_lab4_test_bin_size+0x3ffeff40>
    80000378:	015e6533          	or	x10,x28,x21
    8000037c:	017beeb3          	or	x29,x23,x23
    80000380:	304d5e73          	csrrwi	x28,mie,26
    80000384:	3dd36393          	ori	x7,x6,989
    80000388:	400102b7          	lui	x5,0x40010
    8000038c:	005282b3          	add	x5,x5,x5
    80000390:	0ac2ab83          	lw	x23,172(x5) # 400100ac <_binary_lab4_test_bin_size+0x3ffeff9c>
    80000394:	40010ab7          	lui	x21,0x40010
    80000398:	015a8ab3          	add	x21,x21,x21
    8000039c:	0eaaae23          	sw	x10,252(x21) # 400100fc <_binary_lab4_test_bin_size+0x3ffeffec>
    800003a0:	40340b33          	sub	x22,x8,x3
    800003a4:	40b784bb          	subw	x9,x15,x11
    800003a8:	416f03bb          	subw	x7,x30,x22
    800003ac:	400103b7          	lui	x7,0x40010
    800003b0:	007383b3          	add	x7,x7,x7
    800003b4:	0443cb83          	lbu	x23,68(x7) # 40010044 <_binary_lab4_test_bin_size+0x3ffeff34>
    800003b8:	343668f3          	csrrsi	x17,mtval,12
    800003bc:	3417fd73          	csrrci	x26,mepc,15
    800003c0:	400108b7          	lui	x17,0x40010
    800003c4:	011888b3          	add	x17,x17,x17
    800003c8:	10088893          	addi	x17,x17,256 # 40010100 <_binary_lab4_test_bin_size+0x3ffefff0>
    800003cc:	fee89623          	sh	x14,-20(x17)
    800003d0:	ff3e7193          	andi	x3,x28,-13
    800003d4:	34291f73          	csrrw	x30,mcause,x18
    800003d8:	304bf3f3          	csrrci	x7,mie,23
    800003dc:	68de8d1b          	addiw	x26,x29,1677
    800003e0:	60b58113          	addi	x2,x11,1547
    800003e4:	3417f873          	csrrci	x16,mepc,15
    800003e8:	4048033b          	subw	x6,x16,x4
    800003ec:	19b50313          	addi	x6,x10,411
    800003f0:	34187ff3          	csrrci	x31,mepc,16
    800003f4:	3436f1f3          	csrrci	x3,mtval,13
    800003f8:	00a045b3          	xor	x11,x0,x10
    800003fc:	304ce173          	csrrsi	x2,mie,25
    80000400:	304cfe73          	csrrci	x28,mie,25
    80000404:	3436d8f3          	csrrwi	x17,mtval,13
    80000408:	40010db7          	lui	x27,0x40010
    8000040c:	01bd8db3          	add	x27,x27,x27
    80000410:	100d8d93          	addi	x27,x27,256 # 40010100 <_binary_lab4_test_bin_size+0x3ffefff0>
    80000414:	f5cdeb03          	lwu	x22,-164(x27)
    80000418:	40010a37          	lui	x20,0x40010
    8000041c:	014a0a33          	add	x20,x20,x20
    80000420:	100a0a13          	addi	x20,x20,256 # 40010100 <_binary_lab4_test_bin_size+0x3ffefff0>
    80000424:	f0ca5103          	lhu	x2,-244(x20)
    80000428:	00b04bb3          	xor	x23,x0,x11
    8000042c:	40010fb7          	lui	x31,0x40010
    80000430:	01ff8fb3          	add	x31,x31,x31
    80000434:	100f8f93          	addi	x31,x31,256 # 40010100 <_binary_lab4_test_bin_size+0x3ffefff0>
    80000438:	f31f8a03          	lb	x20,-207(x31)
    8000043c:	00cf65b3          	or	x11,x30,x12
    80000440:	3440edf3          	csrrsi	x27,mip,1
    80000444:	40010337          	lui	x6,0x40010
    80000448:	00630333          	add	x6,x6,x6
    8000044c:	10030313          	addi	x6,x6,256 # 40010100 <_binary_lab4_test_bin_size+0x3ffefff0>
    80000450:	f3634b03          	lbu	x22,-202(x6)
    80000454:	016087bb          	addw	x15,x1,x22
    80000458:	400101b7          	lui	x3,0x40010
    8000045c:	003181b3          	add	x3,x3,x3
    80000460:	10018193          	addi	x3,x3,256 # 40010100 <_binary_lab4_test_bin_size+0x3ffefff0>
    80000464:	f6c19223          	sh	x12,-156(x3)
    80000468:	407d06b3          	sub	x13,x26,x7
    8000046c:	34155673          	csrrwi	x12,mepc,10
    80000470:	40010637          	lui	x12,0x40010
    80000474:	00c60633          	add	x12,x12,x12
    80000478:	10060613          	addi	x12,x12,256 # 40010100 <_binary_lab4_test_bin_size+0x3ffefff0>
    8000047c:	fd560803          	lb	x16,-43(x12)
    80000480:	01038d3b          	addw	x26,x7,x16
    80000484:	d375fd93          	andi	x27,x11,-713
    80000488:	3448dbf3          	csrrwi	x23,mip,17
    8000048c:	4d976593          	ori	x11,x14,1241
    80000490:	4006033b          	subw	x6,x12,x0
    80000494:	40010437          	lui	x8,0x40010
    80000498:	00840433          	add	x8,x8,x8
    8000049c:	10040413          	addi	x8,x8,256 # 40010100 <_binary_lab4_test_bin_size+0x3ffefff0>
    800004a0:	f2845403          	lhu	x8,-216(x8)
    800004a4:	400104b7          	lui	x9,0x40010
    800004a8:	009484b3          	add	x9,x9,x9
    800004ac:	03849503          	lh	x10,56(x9) # 40010038 <_binary_lab4_test_bin_size+0x3ffeff28>
    800004b0:	41c503b3          	sub	x7,x10,x28
    800004b4:	40010c37          	lui	x24,0x40010
    800004b8:	018c0c33          	add	x24,x24,x24
    800004bc:	100c0c13          	addi	x24,x24,256 # 40010100 <_binary_lab4_test_bin_size+0x3ffefff0>
    800004c0:	fc8c1903          	lh	x18,-56(x24)
    800004c4:	00696433          	or	x8,x18,x6
    800004c8:	0060fbb3          	and	x23,x1,x6
    800004cc:	00bde133          	or	x2,x27,x11
    800004d0:	305c9af3          	csrrw	x21,mtvec,x25
    800004d4:	40010fb7          	lui	x31,0x40010
    800004d8:	01ff8fb3          	add	x31,x31,x31
    800004dc:	052fdd83          	lhu	x27,82(x31) # 40010052 <_binary_lab4_test_bin_size+0x3ffeff42>
    800004e0:	752d8d93          	addi	x27,x27,1874
    800004e4:	400106b7          	lui	x13,0x40010
    800004e8:	00d686b3          	add	x13,x13,x13
    800004ec:	10068693          	addi	x13,x13,256 # 40010100 <_binary_lab4_test_bin_size+0x3ffefff0>
    800004f0:	f0b6c003          	lbu	x0,-245(x13)
    800004f4:	dc200613          	li	x12,-574
    800004f8:	b7317793          	andi	x15,x2,-1165
    800004fc:	002d03b3          	add	x7,x26,x2
    80000500:	ac768693          	addi	x13,x13,-1337
    80000504:	01900a33          	add	x20,x0,x25
    80000508:	cdb78c13          	addi	x24,x15,-805
    8000050c:	400101b7          	lui	x3,0x40010
    80000510:	003181b3          	add	x3,x3,x3
    80000514:	10018193          	addi	x3,x3,256 # 40010100 <_binary_lab4_test_bin_size+0x3ffefff0>
    80000518:	fd01be03          	ld	x28,-48(x3)
    8000051c:	4a786f93          	ori	x31,x16,1191
    80000520:	40010db7          	lui	x27,0x40010
    80000524:	01bd8db3          	add	x27,x27,x27
    80000528:	100d8d93          	addi	x27,x27,256 # 40010100 <_binary_lab4_test_bin_size+0x3ffefff0>
    8000052c:	f5ed8983          	lb	x19,-162(x27)
    80000530:	d589c393          	xori	x7,x19,-680
    80000534:	6e5ae793          	ori	x15,x21,1765
    80000538:	40010437          	lui	x8,0x40010
    8000053c:	00840433          	add	x8,x8,x8
    80000540:	10040413          	addi	x8,x8,256 # 40010100 <_binary_lab4_test_bin_size+0x3ffefff0>
    80000544:	fd540023          	sb	x21,-64(x8)
    80000548:	3053d0f3          	csrrwi	x1,mtvec,7
    8000054c:	40010f37          	lui	x30,0x40010
    80000550:	01ef0f33          	add	x30,x30,x30
    80000554:	030f6d83          	lwu	x27,48(x30) # 40010030 <_binary_lab4_test_bin_size+0x3ffeff20>
    80000558:	412d8233          	sub	x4,x27,x18
    8000055c:	400103b7          	lui	x7,0x40010
    80000560:	007383b3          	add	x7,x7,x7
    80000564:	10038393          	addi	x7,x7,256 # 40010100 <_binary_lab4_test_bin_size+0x3ffefff0>
    80000568:	f043ac83          	lw	x25,-252(x7)
    8000056c:	407c83b3          	sub	x7,x25,x7
    80000570:	34249d73          	csrrw	x26,mcause,x9
    80000574:	00d70e3b          	addw	x28,x14,x13
    80000578:	016d6e33          	or	x28,x26,x22
    8000057c:	40010fb7          	lui	x31,0x40010
    80000580:	01ff8fb3          	add	x31,x31,x31
    80000584:	016f8603          	lb	x12,22(x31) # 40010016 <_binary_lab4_test_bin_size+0x3ffeff06>
    80000588:	e633ee93          	ori	x29,x7,-413
    8000058c:	40010937          	lui	x18,0x40010
    80000590:	01290933          	add	x18,x18,x18
    80000594:	0c994003          	lbu	x0,201(x18) # 400100c9 <_binary_lab4_test_bin_size+0x3ffeffb9>
    80000598:	9ab56c13          	ori	x24,x10,-1621
    8000059c:	34299973          	csrrw	x18,mcause,x19
    800005a0:	01dd023b          	addw	x4,x26,x29
    800005a4:	405f0f3b          	subw	x30,x30,x5
    800005a8:	40010fb7          	lui	x31,0x40010
    800005ac:	01ff8fb3          	add	x31,x31,x31
    800005b0:	0affae23          	sw	x15,188(x31) # 400100bc <_binary_lab4_test_bin_size+0x3ffeffac>
    800005b4:	402081bb          	subw	x3,x1,x2
    800005b8:	400103b7          	lui	x7,0x40010
    800005bc:	007383b3          	add	x7,x7,x7
    800005c0:	10038393          	addi	x7,x7,256 # 40010100 <_binary_lab4_test_bin_size+0x3ffefff0>
    800005c4:	f4038da3          	sb	x0,-165(x7)
    800005c8:	41a70db3          	sub	x27,x14,x26
    800005cc:	40f30f3b          	subw	x30,x6,x15
    800005d0:	40c003b3          	neg	x7,x12
    800005d4:	304e5373          	csrrwi	x6,mie,28
    800005d8:	400105b7          	lui	x11,0x40010
    800005dc:	00b585b3          	add	x11,x11,x11
    800005e0:	10058593          	addi	x11,x11,256 # 40010100 <_binary_lab4_test_bin_size+0x3ffefff0>
    800005e4:	ffc5ec83          	lwu	x25,-4(x11)
    800005e8:	01480cb3          	add	x25,x16,x20
    800005ec:	400109b7          	lui	x19,0x40010
    800005f0:	013989b3          	add	x19,x19,x19
    800005f4:	10098993          	addi	x19,x19,256 # 40010100 <_binary_lab4_test_bin_size+0x3ffefff0>
    800005f8:	f289b983          	ld	x19,-216(x19)
    800005fc:	36bc4293          	xori	x5,x24,875
    80000600:	00a6f4b3          	and	x9,x13,x10
    80000604:	0102ec33          	or	x24,x5,x16
    80000608:	40ca8333          	sub	x6,x21,x12
    8000060c:	30417073          	csrci	mie,2
    80000610:	01166eb3          	or	x29,x12,x17
    80000614:	400102b7          	lui	x5,0x40010
    80000618:	005282b3          	add	x5,x5,x5
    8000061c:	0b32b823          	sd	x19,176(x5) # 400100b0 <_binary_lab4_test_bin_size+0x3ffeffa0>
    80000620:	40010e37          	lui	x28,0x40010
    80000624:	01ce0e33          	add	x28,x28,x28
    80000628:	100e0e13          	addi	x28,x28,256 # 40010100 <_binary_lab4_test_bin_size+0x3ffefff0>
    8000062c:	f14e1583          	lh	x11,-236(x28)
    80000630:	400107b7          	lui	x15,0x40010
    80000634:	00f787b3          	add	x15,x15,x15
    80000638:	10078793          	addi	x15,x15,256 # 40010100 <_binary_lab4_test_bin_size+0x3ffefff0>
    8000063c:	f697b423          	sd	x9,-152(x15)
    80000640:	81588013          	addi	x0,x17,-2027
    80000644:	40010db7          	lui	x27,0x40010
    80000648:	01bd8db3          	add	x27,x27,x27
    8000064c:	100d8d93          	addi	x27,x27,256 # 40010100 <_binary_lab4_test_bin_size+0x3ffefff0>
    80000650:	f9ddc503          	lbu	x10,-99(x27)
    80000654:	3f656d93          	ori	x27,x10,1014
    80000658:	40010cb7          	lui	x25,0x40010
    8000065c:	019c8cb3          	add	x25,x25,x25
    80000660:	064cea83          	lwu	x21,100(x25) # 40010064 <_binary_lab4_test_bin_size+0x3ffeff54>
    80000664:	5b8dc493          	xori	x9,x27,1464
    80000668:	40010137          	lui	x2,0x40010
    8000066c:	00210133          	add	x2,x2,x2
    80000670:	10010113          	addi	x2,x2,256 # 40010100 <_binary_lab4_test_bin_size+0x3ffefff0>
    80000674:	f1110b23          	sb	x17,-234(x2)
    80000678:	003f7033          	and	x0,x30,x3
    8000067c:	40e48fb3          	sub	x31,x9,x14
    80000680:	400103b7          	lui	x7,0x40010
    80000684:	007383b3          	add	x7,x7,x7
    80000688:	0e439823          	sh	x4,240(x7) # 400100f0 <_binary_lab4_test_bin_size+0x3ffeffe0>
    8000068c:	40010d37          	lui	x26,0x40010
    80000690:	01ad0d33          	add	x26,x26,x26
    80000694:	0d0d1f83          	lh	x31,208(x26) # 400100d0 <_binary_lab4_test_bin_size+0x3ffeffc0>
    80000698:	0002cfb3          	xor	x31,x5,x0
    8000069c:	01228e3b          	addw	x28,x5,x18
    800006a0:	40010337          	lui	x6,0x40010
    800006a4:	00630333          	add	x6,x6,x6
    800006a8:	10030313          	addi	x6,x6,256 # 40010100 <_binary_lab4_test_bin_size+0x3ffefff0>
    800006ac:	f98306a3          	sb	x24,-115(x6)
    800006b0:	a5d4e613          	ori	x12,x9,-1443
    800006b4:	40eb0833          	sub	x16,x22,x14
    800006b8:	305be473          	csrrsi	x8,mtvec,23
    800006bc:	34266df3          	csrrsi	x27,mcause,12
    800006c0:	3435f973          	csrrci	x18,mtval,11
    800006c4:	40010e37          	lui	x28,0x40010
    800006c8:	01ce0e33          	add	x28,x28,x28
    800006cc:	060e3183          	ld	x3,96(x28) # 40010060 <_binary_lab4_test_bin_size+0x3ffeff50>
    800006d0:	40f201b3          	sub	x3,x4,x15
    800006d4:	0094e233          	or	x4,x9,x9
    800006d8:	40010437          	lui	x8,0x40010
    800006dc:	00840433          	add	x8,x8,x8
    800006e0:	05843003          	ld	x0,88(x8) # 40010058 <_binary_lab4_test_bin_size+0x3ffeff48>
    800006e4:	81c00d9b          	addiw	x27,x0,-2020
    800006e8:	3429d6f3          	csrrwi	x13,mcause,19
    800006ec:	015b0933          	add	x18,x22,x21
    800006f0:	f48c7993          	andi	x19,x24,-184
    800006f4:	40010a37          	lui	x20,0x40010
    800006f8:	014a0a33          	add	x20,x20,x20
    800006fc:	023a3423          	sd	x3,40(x20) # 40010028 <_binary_lab4_test_bin_size+0x3ffeff18>
    80000700:	40010637          	lui	x12,0x40010
    80000704:	00c60633          	add	x12,x12,x12
    80000708:	03663023          	sd	x22,32(x12) # 40010020 <_binary_lab4_test_bin_size+0x3ffeff10>
    8000070c:	40010737          	lui	x14,0x40010
    80000710:	00e70733          	add	x14,x14,x14
    80000714:	10070713          	addi	x14,x14,256 # 40010100 <_binary_lab4_test_bin_size+0x3ffefff0>
    80000718:	f3275203          	lhu	x4,-206(x14)
    8000071c:	00470033          	add	x0,x14,x4
    80000720:	40fc01b3          	sub	x3,x24,x15
    80000724:	0170edb3          	or	x27,x1,x23
    80000728:	1c78e593          	ori	x11,x17,455
    8000072c:	005102bb          	addw	x5,x2,x5
    80000730:	00c4073b          	addw	x14,x8,x12
    80000734:	40f6863b          	subw	x12,x13,x15
    80000738:	24ec4613          	xori	x12,x24,590
    8000073c:	400102b7          	lui	x5,0x40010
    80000740:	005282b3          	add	x5,x5,x5
    80000744:	10028293          	addi	x5,x5,256 # 40010100 <_binary_lab4_test_bin_size+0x3ffefff0>
    80000748:	ff6285a3          	sb	x22,-21(x5)
    8000074c:	9cbd8a1b          	addiw	x20,x27,-1589
    80000750:	34295af3          	csrrwi	x21,mcause,18
    80000754:	40010537          	lui	x10,0x40010
    80000758:	00a50533          	add	x10,x10,x10
    8000075c:	03a55103          	lhu	x2,58(x10) # 4001003a <_binary_lab4_test_bin_size+0x3ffeff2a>
    80000760:	ad41011b          	addiw	x2,x2,-1324
    80000764:	400108b7          	lui	x17,0x40010
    80000768:	011888b3          	add	x17,x17,x17
    8000076c:	0168a823          	sw	x22,16(x17) # 40010010 <_binary_lab4_test_bin_size+0x3ffeff00>
    80000770:	40010337          	lui	x6,0x40010
    80000774:	00630333          	add	x6,x6,x6
    80000778:	10030313          	addi	x6,x6,256 # 40010100 <_binary_lab4_test_bin_size+0x3ffefff0>
    8000077c:	ff731923          	sh	x23,-14(x6)
    80000780:	0156f5b3          	and	x11,x13,x21
    80000784:	40010437          	lui	x8,0x40010
    80000788:	00840433          	add	x8,x8,x8
    8000078c:	10040413          	addi	x8,x8,256 # 40010100 <_binary_lab4_test_bin_size+0x3ffefff0>
    80000790:	f5c40023          	sb	x28,-192(x8)
    80000794:	418f07b3          	sub	x15,x30,x24
    80000798:	40010f37          	lui	x30,0x40010
    8000079c:	01ef0f33          	add	x30,x30,x30
    800007a0:	0aaf2a23          	sw	x10,180(x30) # 400100b4 <_binary_lab4_test_bin_size+0x3ffeffa4>
    800007a4:	b8720f1b          	addiw	x30,x4,-1145 # fffffffffffffb87 <_binary_lab4_test_bin_end+0xffffffff7ffdfa77>
    800007a8:	40010d37          	lui	x26,0x40010
    800007ac:	01ad0d33          	add	x26,x26,x26
    800007b0:	0efd3423          	sd	x15,232(x26) # 400100e8 <_binary_lab4_test_bin_size+0x3ffeffd8>
    800007b4:	40010c37          	lui	x24,0x40010
    800007b8:	018c0c33          	add	x24,x24,x24
    800007bc:	100c0c13          	addi	x24,x24,256 # 40010100 <_binary_lab4_test_bin_size+0x3ffefff0>
    800007c0:	f6cc1a03          	lh	x20,-148(x24)
    800007c4:	40010837          	lui	x16,0x40010
    800007c8:	01080833          	add	x16,x16,x16
    800007cc:	10080813          	addi	x16,x16,256 # 40010100 <_binary_lab4_test_bin_size+0x3ffefff0>
    800007d0:	f9780083          	lb	x1,-105(x16)
    800007d4:	1b366e93          	ori	x29,x12,435
    800007d8:	01030c3b          	addw	x24,x6,x16
    800007dc:	00eaecb3          	or	x25,x21,x14
    800007e0:	007202bb          	addw	x5,x4,x7
    800007e4:	40010237          	lui	x4,0x40010
    800007e8:	00420233          	add	x4,x4,x4
    800007ec:	10020213          	addi	x4,x4,256 # 40010100 <_binary_lab4_test_bin_size+0x3ffefff0>
    800007f0:	fd823283          	ld	x5,-40(x4) # ffffffffffffffd8 <_binary_lab4_test_bin_end+0xffffffff7ffdfec8>
    800007f4:	400105b7          	lui	x11,0x40010
    800007f8:	00b585b3          	add	x11,x11,x11
    800007fc:	10058593          	addi	x11,x11,256 # 40010100 <_binary_lab4_test_bin_size+0x3ffefff0>
    80000800:	f5059a23          	sh	x16,-172(x11)
    80000804:	40b484b3          	sub	x9,x9,x11
    80000808:	3feb4693          	xori	x13,x22,1022
    8000080c:	41e984bb          	subw	x9,x19,x30
    80000810:	000607bb          	addw	x15,x12,x0
    80000814:	fcf0031b          	addiw	x6,x0,-49
    80000818:	dfb97a13          	andi	x20,x18,-517
    8000081c:	30436cf3          	csrrsi	x25,mie,6
    80000820:	342be073          	csrsi	mcause,23
    80000824:	98dae593          	ori	x11,x21,-1651
    80000828:	40010237          	lui	x4,0x40010
    8000082c:	00420233          	add	x4,x4,x4
    80000830:	10020213          	addi	x4,x4,256 # 40010100 <_binary_lab4_test_bin_size+0x3ffefff0>
    80000834:	f4321323          	sh	x3,-186(x4) # ffffffffffffff46 <_binary_lab4_test_bin_end+0xffffffff7ffdfe36>
    80000838:	40010737          	lui	x14,0x40010
    8000083c:	00e70733          	add	x14,x14,x14
    80000840:	10070713          	addi	x14,x14,256 # 40010100 <_binary_lab4_test_bin_size+0x3ffefff0>
    80000844:	f4471483          	lh	x9,-188(x14)
    80000848:	34367b73          	csrrci	x22,mtval,12
    8000084c:	400108b7          	lui	x17,0x40010
    80000850:	011888b3          	add	x17,x17,x17
    80000854:	0348e683          	lwu	x13,52(x17) # 40010034 <_binary_lab4_test_bin_size+0x3ffeff24>
    80000858:	b44a7f13          	andi	x30,x20,-1212
    8000085c:	400108b7          	lui	x17,0x40010
    80000860:	011888b3          	add	x17,x17,x17
    80000864:	10088893          	addi	x17,x17,256 # 40010100 <_binary_lab4_test_bin_size+0x3ffefff0>
    80000868:	fcd89823          	sh	x13,-48(x17)
    8000086c:	40010b37          	lui	x22,0x40010
    80000870:	016b0b33          	add	x22,x22,x22
    80000874:	100b0b13          	addi	x22,x22,256 # 40010100 <_binary_lab4_test_bin_size+0x3ffefff0>
    80000878:	fa8b2703          	lw	x14,-88(x22)
    8000087c:	00ad073b          	addw	x14,x26,x10
    80000880:	400106b7          	lui	x13,0x40010
    80000884:	00d686b3          	add	x13,x13,x13
    80000888:	0bc6d583          	lhu	x11,188(x13) # 400100bc <_binary_lab4_test_bin_size+0x3ffeffac>
    8000088c:	cb0b7613          	andi	x12,x22,-848
    80000890:	400108b7          	lui	x17,0x40010
    80000894:	011888b3          	add	x17,x17,x17
    80000898:	10088893          	addi	x17,x17,256 # 40010100 <_binary_lab4_test_bin_size+0x3ffefff0>
    8000089c:	f7c88ba3          	sb	x28,-137(x17)
    800008a0:	23568d1b          	addiw	x26,x13,565
    800008a4:	400105b7          	lui	x11,0x40010
    800008a8:	00b585b3          	add	x11,x11,x11
    800008ac:	0d05b183          	ld	x3,208(x11) # 400100d0 <_binary_lab4_test_bin_size+0x3ffeffc0>
    800008b0:	00304a33          	xor	x20,x0,x3
    800008b4:	40010d37          	lui	x26,0x40010
    800008b8:	01ad0d33          	add	x26,x26,x26
    800008bc:	100d0d13          	addi	x26,x26,256 # 40010100 <_binary_lab4_test_bin_size+0x3ffefff0>
    800008c0:	f62d0ba3          	sb	x2,-137(x26)
    800008c4:	00f6ff33          	and	x30,x13,x15
    800008c8:	400104b7          	lui	x9,0x40010
    800008cc:	009484b3          	add	x9,x9,x9
    800008d0:	10048493          	addi	x9,x9,256 # 40010100 <_binary_lab4_test_bin_size+0x3ffefff0>
    800008d4:	f5048b03          	lb	x22,-176(x9)
    800008d8:	00b68b3b          	addw	x22,x13,x11
    800008dc:	400101b7          	lui	x3,0x40010
    800008e0:	003181b3          	add	x3,x3,x3
    800008e4:	0d21c783          	lbu	x15,210(x3) # 400100d2 <_binary_lab4_test_bin_size+0x3ffeffc2>
    800008e8:	0ae7f793          	andi	x15,x15,174
    800008ec:	41458e3b          	subw	x28,x11,x20
    800008f0:	54294c13          	xori	x24,x18,1346
    800008f4:	01408c3b          	addw	x24,x1,x20
    800008f8:	343414f3          	csrrw	x9,mtval,x8
    800008fc:	4104873b          	subw	x14,x9,x16
    80000900:	40010a37          	lui	x20,0x40010
    80000904:	014a0a33          	add	x20,x20,x20
    80000908:	068a3e03          	ld	x28,104(x20) # 40010068 <_binary_lab4_test_bin_size+0x3ffeff58>
    8000090c:	01c8f5b3          	and	x11,x17,x28
    80000910:	00b2ea33          	or	x20,x5,x11
    80000914:	40010cb7          	lui	x25,0x40010
    80000918:	019c8cb3          	add	x25,x25,x25
    8000091c:	100c8c93          	addi	x25,x25,256 # 40010100 <_binary_lab4_test_bin_size+0x3ffefff0>
    80000920:	f34c9383          	lh	x7,-204(x25)
    80000924:	d1770393          	addi	x7,x14,-745
    80000928:	305f5573          	csrrwi	x10,mtvec,30
    8000092c:	400101b7          	lui	x3,0x40010
    80000930:	003181b3          	add	x3,x3,x3
    80000934:	07c19003          	lh	x0,124(x3) # 4001007c <_binary_lab4_test_bin_size+0x3ffeff6c>
    80000938:	f7fe7593          	andi	x11,x28,-129
    8000093c:	400103b7          	lui	x7,0x40010
    80000940:	007383b3          	add	x7,x7,x7
    80000944:	09439203          	lh	x4,148(x7) # 40010094 <_binary_lab4_test_bin_size+0x3ffeff84>
    80000948:	0082823b          	addw	x4,x5,x8
    8000094c:	40010637          	lui	x12,0x40010
    80000950:	00c60633          	add	x12,x12,x12
    80000954:	10060613          	addi	x12,x12,256 # 40010100 <_binary_lab4_test_bin_size+0x3ffefff0>
    80000958:	f4a61083          	lh	x1,-182(x12)
    8000095c:	40010e37          	lui	x28,0x40010
    80000960:	01ce0e33          	add	x28,x28,x28
    80000964:	100e0e13          	addi	x28,x28,256 # 40010100 <_binary_lab4_test_bin_size+0x3ffefff0>
    80000968:	fabe0b23          	sb	x11,-74(x28)
    8000096c:	400106b7          	lui	x13,0x40010
    80000970:	00d686b3          	add	x13,x13,x13
    80000974:	10068693          	addi	x13,x13,256 # 40010100 <_binary_lab4_test_bin_size+0x3ffefff0>
    80000978:	f926d003          	lhu	x0,-110(x13)
    8000097c:	6e39e593          	ori	x11,x19,1763
    80000980:	3054f7f3          	csrrci	x15,mtvec,9
    80000984:	014ecc33          	xor	x24,x29,x20
    80000988:	40010e37          	lui	x28,0x40010
    8000098c:	01ce0e33          	add	x28,x28,x28
    80000990:	07be0483          	lb	x9,123(x28) # 4001007b <_binary_lab4_test_bin_size+0x3ffeff6b>
    80000994:	0090c133          	xor	x2,x1,x9
    80000998:	007f6bb3          	or	x23,x30,x7
    8000099c:	40010cb7          	lui	x25,0x40010
    800009a0:	019c8cb3          	add	x25,x25,x25
    800009a4:	02ecd903          	lhu	x18,46(x25) # 4001002e <_binary_lab4_test_bin_size+0x3ffeff1e>
    800009a8:	01460933          	add	x18,x12,x20
    800009ac:	6d1e6a93          	ori	x21,x28,1745
    800009b0:	40010cb7          	lui	x25,0x40010
    800009b4:	019c8cb3          	add	x25,x25,x25
    800009b8:	100c8c93          	addi	x25,x25,256 # 40010100 <_binary_lab4_test_bin_size+0x3ffefff0>
    800009bc:	f33cc103          	lbu	x2,-205(x25)
    800009c0:	40010637          	lui	x12,0x40010
    800009c4:	00c60633          	add	x12,x12,x12
    800009c8:	06062023          	sw	x0,96(x12) # 40010060 <_binary_lab4_test_bin_size+0x3ffeff50>
    800009cc:	40010737          	lui	x14,0x40010
    800009d0:	00e70733          	add	x14,x14,x14
    800009d4:	09f73c23          	sd	x31,152(x14) # 40010098 <_binary_lab4_test_bin_size+0x3ffeff88>
    800009d8:	400103b7          	lui	x7,0x40010
    800009dc:	007383b3          	add	x7,x7,x7
    800009e0:	10038393          	addi	x7,x7,256 # 40010100 <_binary_lab4_test_bin_size+0x3ffefff0>
    800009e4:	f403e203          	lwu	x4,-192(x7)
    800009e8:	344b94f3          	csrrw	x9,mip,x23
    800009ec:	40010637          	lui	x12,0x40010
    800009f0:	00c60633          	add	x12,x12,x12
    800009f4:	09461203          	lh	x4,148(x12) # 40010094 <_binary_lab4_test_bin_size+0x3ffeff84>
    800009f8:	414c023b          	subw	x4,x24,x20
    800009fc:	0bf40913          	addi	x18,x8,191
    80000a00:	40010eb7          	lui	x29,0x40010
    80000a04:	01de8eb3          	add	x29,x29,x29
    80000a08:	03ce9583          	lh	x11,60(x29) # 4001003c <_binary_lab4_test_bin_size+0x3ffeff2c>
    80000a0c:	00f5feb3          	and	x29,x11,x15
    80000a10:	344b6ef3          	csrrsi	x29,mip,22
    80000a14:	400102b7          	lui	x5,0x40010
    80000a18:	005282b3          	add	x5,x5,x5
    80000a1c:	00229483          	lh	x9,2(x5) # 40010002 <_binary_lab4_test_bin_size+0x3ffefef2>
    80000a20:	0054fd33          	and	x26,x9,x5
    80000a24:	40010937          	lui	x18,0x40010
    80000a28:	01290933          	add	x18,x18,x18
    80000a2c:	04295003          	lhu	x0,66(x18) # 40010042 <_binary_lab4_test_bin_size+0x3ffeff32>
    80000a30:	ae900013          	li	x0,-1303
    80000a34:	18c28d13          	addi	x26,x5,396
    80000a38:	40010937          	lui	x18,0x40010
    80000a3c:	01290933          	add	x18,x18,x18
    80000a40:	10090913          	addi	x18,x18,256 # 40010100 <_binary_lab4_test_bin_size+0x3ffefff0>
    80000a44:	f9a93423          	sd	x26,-120(x18)
    80000a48:	40ab893b          	subw	x18,x23,x10
    80000a4c:	400106b7          	lui	x13,0x40010
    80000a50:	00d686b3          	add	x13,x13,x13
    80000a54:	10068693          	addi	x13,x13,256 # 40010100 <_binary_lab4_test_bin_size+0x3ffefff0>
    80000a58:	f9c6ac83          	lw	x25,-100(x13)
    80000a5c:	2a0ff513          	andi	x10,x31,672
    80000a60:	bb170d93          	addi	x27,x14,-1103
    80000a64:	de6f099b          	addiw	x19,x30,-538
    80000a68:	34341ef3          	csrrw	x29,mtval,x8
    80000a6c:	40010bb7          	lui	x23,0x40010
    80000a70:	017b8bb3          	add	x23,x23,x23
    80000a74:	058bd083          	lhu	x1,88(x23) # 40010058 <_binary_lab4_test_bin_size+0x3ffeff48>
    80000a78:	00b0cf33          	xor	x30,x1,x11
    80000a7c:	40010737          	lui	x14,0x40010
    80000a80:	00e70733          	add	x14,x14,x14
    80000a84:	10070713          	addi	x14,x14,256 # 40010100 <_binary_lab4_test_bin_size+0x3ffefff0>
    80000a88:	fa174e03          	lbu	x28,-95(x14)
    80000a8c:	40010237          	lui	x4,0x40010
    80000a90:	00420233          	add	x4,x4,x4
    80000a94:	0bf22c23          	sw	x31,184(x4) # 400100b8 <_binary_lab4_test_bin_size+0x3ffeffa8>
    80000a98:	40010537          	lui	x10,0x40010
    80000a9c:	00a50533          	add	x10,x10,x10
    80000aa0:	06852c23          	sw	x8,120(x10) # 40010078 <_binary_lab4_test_bin_size+0x3ffeff68>
    80000aa4:	400104b7          	lui	x9,0x40010
    80000aa8:	009484b3          	add	x9,x9,x9
    80000aac:	10048493          	addi	x9,x9,256 # 40010100 <_binary_lab4_test_bin_size+0x3ffefff0>
    80000ab0:	f5749b23          	sh	x23,-170(x9)
    80000ab4:	408100b3          	sub	x1,x2,x8
    80000ab8:	400108b7          	lui	x17,0x40010
    80000abc:	011888b3          	add	x17,x17,x17
    80000ac0:	08789c23          	sh	x7,152(x17) # 40010098 <_binary_lab4_test_bin_size+0x3ffeff88>
    80000ac4:	08337793          	andi	x15,x6,131
    80000ac8:	34149073          	csrw	mepc,x9
    80000acc:	40010137          	lui	x2,0x40010
    80000ad0:	00210133          	add	x2,x2,x2
    80000ad4:	10010113          	addi	x2,x2,256 # 40010100 <_binary_lab4_test_bin_size+0x3ffefff0>
    80000ad8:	fae14803          	lbu	x16,-82(x2)
    80000adc:	01068eb3          	add	x29,x13,x16
    80000ae0:	400108b7          	lui	x17,0x40010
    80000ae4:	011888b3          	add	x17,x17,x17
    80000ae8:	10088893          	addi	x17,x17,256 # 40010100 <_binary_lab4_test_bin_size+0x3ffefff0>
    80000aec:	fb08b823          	sd	x16,-80(x17)
    80000af0:	40010737          	lui	x14,0x40010
    80000af4:	00e70733          	add	x14,x14,x14
    80000af8:	10070713          	addi	x14,x14,256 # 40010100 <_binary_lab4_test_bin_size+0x3ffefff0>
    80000afc:	f6873083          	ld	x1,-152(x14)
    80000b00:	4410ce13          	xori	x28,x1,1089
    80000b04:	0131cb33          	xor	x22,x3,x19
    80000b08:	40010eb7          	lui	x29,0x40010
    80000b0c:	01de8eb3          	add	x29,x29,x29
    80000b10:	100e8e93          	addi	x29,x29,256 # 40010100 <_binary_lab4_test_bin_size+0x3ffefff0>
    80000b14:	fe2e8323          	sb	x2,-26(x29)
    80000b18:	40010737          	lui	x14,0x40010
    80000b1c:	00e70733          	add	x14,x14,x14
    80000b20:	10070713          	addi	x14,x14,256 # 40010100 <_binary_lab4_test_bin_size+0x3ffefff0>
    80000b24:	f2876e03          	lwu	x28,-216(x14)
    80000b28:	00db7e33          	and	x28,x22,x13
    80000b2c:	004402b3          	add	x5,x8,x4
    80000b30:	00f70bbb          	addw	x23,x14,x15
    80000b34:	f0188893          	addi	x17,x17,-255
    80000b38:	304c59f3          	csrrwi	x19,mie,24
    80000b3c:	400101b7          	lui	x3,0x40010
    80000b40:	003181b3          	add	x3,x3,x3
    80000b44:	10018193          	addi	x3,x3,256 # 40010100 <_binary_lab4_test_bin_size+0x3ffefff0>
    80000b48:	f701d983          	lhu	x19,-144(x3)
    80000b4c:	01a9fe33          	and	x28,x19,x26
    80000b50:	00540fb3          	add	x31,x8,x5
    80000b54:	40010737          	lui	x14,0x40010
    80000b58:	00e70733          	add	x14,x14,x14
    80000b5c:	00c76d83          	lwu	x27,12(x14) # 4001000c <_binary_lab4_test_bin_size+0x3ffefefc>
    80000b60:	01af07bb          	addw	x15,x30,x26
    80000b64:	40010c37          	lui	x24,0x40010
    80000b68:	018c0c33          	add	x24,x24,x24
    80000b6c:	100c0c13          	addi	x24,x24,256 # 40010100 <_binary_lab4_test_bin_size+0x3ffefff0>
    80000b70:	f76c1b03          	lh	x22,-138(x24)
    80000b74:	010b003b          	addw	x0,x22,x16
    80000b78:	015be933          	or	x18,x23,x21
    80000b7c:	01e40d33          	add	x26,x8,x30
    80000b80:	40010237          	lui	x4,0x40010
    80000b84:	00420233          	add	x4,x4,x4
    80000b88:	10020213          	addi	x4,x4,256 # 40010100 <_binary_lab4_test_bin_size+0x3ffefff0>
    80000b8c:	f2823d03          	ld	x26,-216(x4) # ffffffffffffff28 <_binary_lab4_test_bin_end+0xffffffff7ffdfe18>
    80000b90:	400102b7          	lui	x5,0x40010
    80000b94:	005282b3          	add	x5,x5,x5
    80000b98:	10028293          	addi	x5,x5,256 # 40010100 <_binary_lab4_test_bin_size+0x3ffefff0>
    80000b9c:	f0e2b023          	sd	x14,-256(x5)
    80000ba0:	407f0c3b          	subw	x24,x30,x7
    80000ba4:	40010d37          	lui	x26,0x40010
    80000ba8:	01ad0d33          	add	x26,x26,x26
    80000bac:	0c8d2c83          	lw	x25,200(x26) # 400100c8 <_binary_lab4_test_bin_size+0x3ffeffb8>
    80000bb0:	40010437          	lui	x8,0x40010
    80000bb4:	00840433          	add	x8,x8,x8
    80000bb8:	0e742623          	sw	x7,236(x8) # 400100ec <_binary_lab4_test_bin_size+0x3ffeffdc>
    80000bbc:	305676f3          	csrrci	x13,mtvec,12
    80000bc0:	5ec87413          	andi	x8,x16,1516
    80000bc4:	0da2ff13          	andi	x30,x5,218
    80000bc8:	34189c73          	csrrw	x24,mepc,x17
    80000bcc:	1f0c861b          	addiw	x12,x25,496
    80000bd0:	0050f5b3          	and	x11,x1,x5
    80000bd4:	3049df73          	csrrwi	x30,mie,19
    80000bd8:	34427573          	csrrci	x10,mip,4
    80000bdc:	40010cb7          	lui	x25,0x40010
    80000be0:	019c8cb3          	add	x25,x25,x25
    80000be4:	036c9083          	lh	x1,54(x25) # 40010036 <_binary_lab4_test_bin_size+0x3ffeff26>
    80000be8:	01708cb3          	add	x25,x1,x23
    80000bec:	01cd8eb3          	add	x29,x27,x28
    80000bf0:	40010237          	lui	x4,0x40010
    80000bf4:	00420233          	add	x4,x4,x4
    80000bf8:	10020213          	addi	x4,x4,256 # 40010100 <_binary_lab4_test_bin_size+0x3ffefff0>
    80000bfc:	f9221903          	lh	x18,-110(x4) # ffffffffffffff92 <_binary_lab4_test_bin_end+0xffffffff7ffdfe82>
    80000c00:	30429af3          	csrrw	x21,mie,x5
    80000c04:	dcb68713          	addi	x14,x13,-565
    80000c08:	400106b7          	lui	x13,0x40010
    80000c0c:	00d686b3          	add	x13,x13,x13
    80000c10:	10068693          	addi	x13,x13,256 # 40010100 <_binary_lab4_test_bin_size+0x3ffefff0>
    80000c14:	f2869023          	sh	x8,-224(x13)
    80000c18:	003d063b          	addw	x12,x26,x3
    80000c1c:	007e71b3          	and	x3,x28,x7
    80000c20:	408f0433          	sub	x8,x30,x8
    80000c24:	305be1f3          	csrrsi	x3,mtvec,23
    80000c28:	f534829b          	addiw	x5,x9,-173
    80000c2c:	40010bb7          	lui	x23,0x40010
    80000c30:	017b8bb3          	add	x23,x23,x23
    80000c34:	0c4bd303          	lhu	x6,196(x23) # 400100c4 <_binary_lab4_test_bin_size+0x3ffeffb4>
    80000c38:	342067f3          	csrrsi	x15,mcause,0
    80000c3c:	40010ab7          	lui	x21,0x40010
    80000c40:	015a8ab3          	add	x21,x21,x21
    80000c44:	100a8a93          	addi	x21,x21,256 # 40010100 <_binary_lab4_test_bin_size+0x3ffefff0>
    80000c48:	f19ab023          	sd	x25,-256(x21)
    80000c4c:	40010a37          	lui	x20,0x40010
    80000c50:	014a0a33          	add	x20,x20,x20
    80000c54:	0bba3023          	sd	x27,160(x20) # 400100a0 <_binary_lab4_test_bin_size+0x3ffeff90>
    80000c58:	68264e93          	xori	x29,x12,1666
    80000c5c:	40010937          	lui	x18,0x40010
    80000c60:	01290933          	add	x18,x18,x18
    80000c64:	10090913          	addi	x18,x18,256 # 40010100 <_binary_lab4_test_bin_size+0x3ffefff0>
    80000c68:	ff893d03          	ld	x26,-8(x18)
    80000c6c:	8b8d019b          	addiw	x3,x26,-1864
    80000c70:	40010d37          	lui	x26,0x40010
    80000c74:	01ad0d33          	add	x26,x26,x26
    80000c78:	100d0d13          	addi	x26,x26,256 # 40010100 <_binary_lab4_test_bin_size+0x3ffefff0>
    80000c7c:	fcfd3823          	sd	x15,-48(x26)
    80000c80:	00e14833          	xor	x16,x2,x14
    80000c84:	400106b7          	lui	x13,0x40010
    80000c88:	00d686b3          	add	x13,x13,x13
    80000c8c:	0fb6aa23          	sw	x27,244(x13) # 400100f4 <_binary_lab4_test_bin_size+0x3ffeffe4>
    80000c90:	40010237          	lui	x4,0x40010
    80000c94:	00420233          	add	x4,x4,x4
    80000c98:	10020213          	addi	x4,x4,256 # 40010100 <_binary_lab4_test_bin_size+0x3ffefff0>
    80000c9c:	f6822823          	sw	x8,-144(x4) # ffffffffffffff70 <_binary_lab4_test_bin_end+0xffffffff7ffdfe60>
    80000ca0:	41820d33          	sub	x26,x4,x24
    80000ca4:	305959f3          	csrrwi	x19,mtvec,18
    80000ca8:	40010137          	lui	x2,0x40010
    80000cac:	00210133          	add	x2,x2,x2
    80000cb0:	10010113          	addi	x2,x2,256 # 40010100 <_binary_lab4_test_bin_size+0x3ffefff0>
    80000cb4:	f7611483          	lh	x9,-138(x2)
    80000cb8:	d93e4a93          	xori	x21,x28,-621
    80000cbc:	343c79f3          	csrrci	x19,mtval,24
    80000cc0:	5bc34893          	xori	x17,x6,1468
    80000cc4:	40010937          	lui	x18,0x40010
    80000cc8:	01290933          	add	x18,x18,x18
    80000ccc:	10090913          	addi	x18,x18,256 # 40010100 <_binary_lab4_test_bin_size+0x3ffefff0>
    80000cd0:	f1095083          	lhu	x1,-240(x18)
    80000cd4:	40c880bb          	subw	x1,x17,x12
    80000cd8:	00cfeb33          	or	x22,x31,x12
    80000cdc:	36b6e513          	ori	x10,x13,875
    80000ce0:	56088a13          	addi	x20,x17,1376
    80000ce4:	40010337          	lui	x6,0x40010
    80000ce8:	00630333          	add	x6,x6,x6
    80000cec:	10030313          	addi	x6,x6,256 # 40010100 <_binary_lab4_test_bin_size+0x3ffefff0>
    80000cf0:	fb036703          	lwu	x14,-80(x6)
    80000cf4:	40e00fbb          	negw	x31,x14
    80000cf8:	d21e7a93          	andi	x21,x28,-735
    80000cfc:	412387bb          	subw	x15,x7,x18
    80000d00:	40010b37          	lui	x22,0x40010
    80000d04:	016b0b33          	add	x22,x22,x22
    80000d08:	0c0b3f03          	ld	x30,192(x22) # 400100c0 <_binary_lab4_test_bin_size+0x3ffeffb0>
    80000d0c:	00bf7e33          	and	x28,x30,x11
    80000d10:	400105b7          	lui	x11,0x40010
    80000d14:	00b585b3          	add	x11,x11,x11
    80000d18:	10058593          	addi	x11,x11,256 # 40010100 <_binary_lab4_test_bin_size+0x3ffefff0>
    80000d1c:	f0a59d23          	sh	x10,-230(x11)
    80000d20:	40010d37          	lui	x26,0x40010
    80000d24:	01ad0d33          	add	x26,x26,x26
    80000d28:	033d0f83          	lb	x31,51(x26) # 40010033 <_binary_lab4_test_bin_size+0x3ffeff23>
    80000d2c:	400107b7          	lui	x15,0x40010
    80000d30:	00f787b3          	add	x15,x15,x15
    80000d34:	0647ca83          	lbu	x21,100(x15) # 40010064 <_binary_lab4_test_bin_size+0x3ffeff54>
    80000d38:	463d4713          	xori	x14,x26,1123
    80000d3c:	02f76613          	ori	x12,x14,47
    80000d40:	41cc82bb          	subw	x5,x25,x28
    80000d44:	018bfa33          	and	x20,x23,x24
    80000d48:	342a9173          	csrrw	x2,mcause,x21
    80000d4c:	f438c093          	xori	x1,x17,-189
    80000d50:	40690a33          	sub	x20,x18,x6
    80000d54:	344b9773          	csrrw	x14,mip,x23
    80000d58:	343d50f3          	csrrwi	x1,mtval,26
    80000d5c:	3436f273          	csrrci	x4,mtval,13
    80000d60:	41dd85b3          	sub	x11,x27,x29
    80000d64:	40010437          	lui	x8,0x40010
    80000d68:	00840433          	add	x8,x8,x8
    80000d6c:	0b042583          	lw	x11,176(x8) # 400100b0 <_binary_lab4_test_bin_size+0x3ffeffa0>
    80000d70:	00b786bb          	addw	x13,x15,x11
    80000d74:	30536e73          	csrrsi	x28,mtvec,6
    80000d78:	415c853b          	subw	x10,x25,x21
    80000d7c:	40010e37          	lui	x28,0x40010
    80000d80:	01ce0e33          	add	x28,x28,x28
    80000d84:	028e6903          	lwu	x18,40(x28) # 40010028 <_binary_lab4_test_bin_size+0x3ffeff18>
    80000d88:	34207573          	csrrci	x10,mcause,0
    80000d8c:	34111f73          	csrrw	x30,mepc,x2
    80000d90:	0108ffb3          	and	x31,x17,x16
    80000d94:	40010437          	lui	x8,0x40010
    80000d98:	00840433          	add	x8,x8,x8
    80000d9c:	10040413          	addi	x8,x8,256 # 40010100 <_binary_lab4_test_bin_size+0x3ffefff0>
    80000da0:	f3040ea3          	sb	x16,-195(x8)
    80000da4:	40010c37          	lui	x24,0x40010
    80000da8:	018c0c33          	add	x24,x24,x24
    80000dac:	100c0c13          	addi	x24,x24,256 # 40010100 <_binary_lab4_test_bin_size+0x3ffefff0>
    80000db0:	f46c0ca3          	sb	x6,-167(x24)
    80000db4:	40010637          	lui	x12,0x40010
    80000db8:	00c60633          	add	x12,x12,x12
    80000dbc:	10060613          	addi	x12,x12,256 # 40010100 <_binary_lab4_test_bin_size+0x3ffefff0>
    80000dc0:	fbe60323          	sb	x30,-90(x12)
    80000dc4:	0021e9b3          	or	x19,x3,x2
    80000dc8:	40010f37          	lui	x30,0x40010
    80000dcc:	01ef0f33          	add	x30,x30,x30
    80000dd0:	003f4e03          	lbu	x28,3(x30) # 40010003 <_binary_lab4_test_bin_size+0x3ffefef3>
    80000dd4:	01fe013b          	addw	x2,x28,x31
    80000dd8:	40010eb7          	lui	x29,0x40010
    80000ddc:	01de8eb3          	add	x29,x29,x29
    80000de0:	100e8e93          	addi	x29,x29,256 # 40010100 <_binary_lab4_test_bin_size+0x3ffefff0>
    80000de4:	f88e9b03          	lh	x22,-120(x29)
    80000de8:	40010837          	lui	x16,0x40010
    80000dec:	01080833          	add	x16,x16,x16
    80000df0:	10080813          	addi	x16,x16,256 # 40010100 <_binary_lab4_test_bin_size+0x3ffefff0>
    80000df4:	fd681f83          	lh	x31,-42(x16)
    80000df8:	283fcf93          	xori	x31,x31,643
    80000dfc:	40fd04b3          	sub	x9,x26,x15
    80000e00:	34139673          	csrrw	x12,mepc,x7
    80000e04:	40010437          	lui	x8,0x40010
    80000e08:	00840433          	add	x8,x8,x8
    80000e0c:	10040413          	addi	x8,x8,256 # 40010100 <_binary_lab4_test_bin_size+0x3ffefff0>
    80000e10:	ffb44e83          	lbu	x29,-5(x8)
    80000e14:	40010237          	lui	x4,0x40010
    80000e18:	00420233          	add	x4,x4,x4
    80000e1c:	10020213          	addi	x4,x4,256 # 40010100 <_binary_lab4_test_bin_size+0x3ffefff0>
    80000e20:	f4421003          	lh	x0,-188(x4) # ffffffffffffff44 <_binary_lab4_test_bin_end+0xffffffff7ffdfe34>
    80000e24:	c5d0001b          	addiw	x0,x0,-931
    80000e28:	84b67893          	andi	x17,x12,-1973
    80000e2c:	0128013b          	addw	x2,x16,x18
    80000e30:	412e03b3          	sub	x7,x28,x18
    80000e34:	010af633          	and	x12,x21,x16
    80000e38:	40010737          	lui	x14,0x40010
    80000e3c:	00e70733          	add	x14,x14,x14
    80000e40:	10070713          	addi	x14,x14,256 # 40010100 <_binary_lab4_test_bin_size+0x3ffefff0>
    80000e44:	f6570ea3          	sb	x5,-131(x14)
    80000e48:	40c40833          	sub	x16,x8,x12
    80000e4c:	0029edb3          	or	x27,x19,x2
    80000e50:	951deb93          	ori	x23,x27,-1711
    80000e54:	40010637          	lui	x12,0x40010
    80000e58:	00c60633          	add	x12,x12,x12
    80000e5c:	06063883          	ld	x17,96(x12) # 40010060 <_binary_lab4_test_bin_size+0x3ffeff50>
    80000e60:	9fac7293          	andi	x5,x24,-1542
    80000e64:	40010937          	lui	x18,0x40010
    80000e68:	01290933          	add	x18,x18,x18
    80000e6c:	0d492d83          	lw	x27,212(x18) # 400100d4 <_binary_lab4_test_bin_size+0x3ffeffc4>
    80000e70:	35528d93          	addi	x27,x5,853
    80000e74:	40010737          	lui	x14,0x40010
    80000e78:	00e70733          	add	x14,x14,x14
    80000e7c:	0da74803          	lbu	x16,218(x14) # 400100da <_binary_lab4_test_bin_size+0x3ffeffca>
    80000e80:	6e57ea93          	ori	x21,x15,1765
    80000e84:	400109b7          	lui	x19,0x40010
    80000e88:	013989b3          	add	x19,x19,x19
    80000e8c:	0769c403          	lbu	x8,118(x19) # 40010076 <_binary_lab4_test_bin_size+0x3ffeff66>
    80000e90:	4087003b          	subw	x0,x14,x8
    80000e94:	01b18f3b          	addw	x30,x3,x27
    80000e98:	3423f8f3          	csrrci	x17,mcause,7
    80000e9c:	400103b7          	lui	x7,0x40010
    80000ea0:	007383b3          	add	x7,x7,x7
    80000ea4:	0f63cc83          	lbu	x25,246(x7) # 400100f6 <_binary_lab4_test_bin_size+0x3ffeffe6>
    80000ea8:	40010e37          	lui	x28,0x40010
    80000eac:	01ce0e33          	add	x28,x28,x28
    80000eb0:	0f0e5d03          	lhu	x26,240(x28) # 400100f0 <_binary_lab4_test_bin_size+0x3ffeffe0>
    80000eb4:	414a8d33          	sub	x26,x21,x20
    80000eb8:	304fdff3          	csrrwi	x31,mie,31
    80000ebc:	00aef4b3          	and	x9,x29,x10
    80000ec0:	400103b7          	lui	x7,0x40010
    80000ec4:	007383b3          	add	x7,x7,x7
    80000ec8:	0913cf03          	lbu	x30,145(x7) # 40010091 <_binary_lab4_test_bin_size+0x3ffeff81>
    80000ecc:	f91f0f1b          	addiw	x30,x30,-111
    80000ed0:	01c6f833          	and	x16,x13,x28
    80000ed4:	40010f37          	lui	x30,0x40010
    80000ed8:	01ef0f33          	add	x30,x30,x30
    80000edc:	006f0423          	sb	x6,8(x30) # 40010008 <_binary_lab4_test_bin_size+0x3ffefef8>
    80000ee0:	40010fb7          	lui	x31,0x40010
    80000ee4:	01ff8fb3          	add	x31,x31,x31
    80000ee8:	100f8f93          	addi	x31,x31,256 # 40010100 <_binary_lab4_test_bin_size+0x3ffefff0>
    80000eec:	ffbfa423          	sw	x27,-24(x31)
    80000ef0:	400102b7          	lui	x5,0x40010
    80000ef4:	005282b3          	add	x5,x5,x5
    80000ef8:	10028293          	addi	x5,x5,256 # 40010100 <_binary_lab4_test_bin_size+0x3ffefff0>
    80000efc:	fb42dd83          	lhu	x27,-76(x5)
    80000f00:	40010ab7          	lui	x21,0x40010
    80000f04:	015a8ab3          	add	x21,x21,x21
    80000f08:	0c7ab823          	sd	x7,208(x21) # 400100d0 <_binary_lab4_test_bin_size+0x3ffeffc0>
    80000f0c:	008787bb          	addw	x15,x15,x8
    80000f10:	40010437          	lui	x8,0x40010
    80000f14:	00840433          	add	x8,x8,x8
    80000f18:	10040413          	addi	x8,x8,256 # 40010100 <_binary_lab4_test_bin_size+0x3ffefff0>
    80000f1c:	fa141b23          	sh	x1,-74(x8)
    80000f20:	00de093b          	addw	x18,x28,x13
    80000f24:	40010cb7          	lui	x25,0x40010
    80000f28:	019c8cb3          	add	x25,x25,x25
    80000f2c:	060c9a23          	sh	x0,116(x25) # 40010074 <_binary_lab4_test_bin_size+0x3ffeff64>
    80000f30:	00f488b3          	add	x17,x9,x15
    80000f34:	344dde73          	csrrwi	x28,mip,27
    80000f38:	304ddd73          	csrrwi	x26,mie,27
    80000f3c:	60096193          	ori	x3,x18,1536
    80000f40:	40010537          	lui	x10,0x40010
    80000f44:	00a50533          	add	x10,x10,x10
    80000f48:	0e254083          	lbu	x1,226(x10) # 400100e2 <_binary_lab4_test_bin_size+0x3ffeffd2>
    80000f4c:	40808533          	sub	x10,x1,x8
    80000f50:	387b0b13          	addi	x22,x22,903
    80000f54:	86340013          	addi	x0,x8,-1949
    80000f58:	40010bb7          	lui	x23,0x40010
    80000f5c:	017b8bb3          	add	x23,x23,x23
    80000f60:	0ebb8b03          	lb	x22,235(x23) # 400100eb <_binary_lab4_test_bin_size+0x3ffeffdb>
    80000f64:	01810b33          	add	x22,x2,x24
    80000f68:	2318041b          	addiw	x8,x16,561
    80000f6c:	400109b7          	lui	x19,0x40010
    80000f70:	013989b3          	add	x19,x19,x19
    80000f74:	10098993          	addi	x19,x19,256 # 40010100 <_binary_lab4_test_bin_size+0x3ffefff0>
    80000f78:	fb59bc23          	sd	x21,-72(x19)
    80000f7c:	01b408b3          	add	x17,x8,x27
    80000f80:	01316f33          	or	x30,x2,x19
    80000f84:	304617f3          	csrrw	x15,mie,x12
    80000f88:	417f03bb          	subw	x7,x30,x23
    80000f8c:	40010cb7          	lui	x25,0x40010
    80000f90:	019c8cb3          	add	x25,x25,x25
    80000f94:	0b9cbc23          	sd	x25,184(x25) # 400100b8 <_binary_lab4_test_bin_size+0x3ffeffa8>
    80000f98:	01618333          	add	x6,x3,x22
    80000f9c:	400105b7          	lui	x11,0x40010
    80000fa0:	00b585b3          	add	x11,x11,x11
    80000fa4:	03b5b823          	sd	x27,48(x11) # 40010030 <_binary_lab4_test_bin_size+0x3ffeff20>
    80000fa8:	34351f73          	csrrw	x30,mtval,x10
    80000fac:	0e92c613          	xori	x12,x5,233
    80000fb0:	40010bb7          	lui	x23,0x40010
    80000fb4:	017b8bb3          	add	x23,x23,x23
    80000fb8:	0aabb023          	sd	x10,160(x23) # 400100a0 <_binary_lab4_test_bin_size+0x3ffeff90>
    80000fbc:	414d03bb          	subw	x7,x26,x20
    80000fc0:	40010fb7          	lui	x31,0x40010
    80000fc4:	01ff8fb3          	add	x31,x31,x31
    80000fc8:	064f80a3          	sb	x4,97(x31) # 40010061 <_binary_lab4_test_bin_size+0x3ffeff51>
    80000fcc:	40010bb7          	lui	x23,0x40010
    80000fd0:	017b8bb3          	add	x23,x23,x23
    80000fd4:	0f2bc483          	lbu	x9,242(x23) # 400100f2 <_binary_lab4_test_bin_size+0x3ffeffe2>
    80000fd8:	01948fbb          	addw	x31,x9,x25
    80000fdc:	01d0cdb3          	xor	x27,x1,x29
    80000fe0:	41150a33          	sub	x20,x10,x17
    80000fe4:	400102b7          	lui	x5,0x40010
    80000fe8:	005282b3          	add	x5,x5,x5
    80000fec:	10028293          	addi	x5,x5,256 # 40010100 <_binary_lab4_test_bin_size+0x3ffefff0>
    80000ff0:	f242a583          	lw	x11,-220(x5)
    80000ff4:	1e55859b          	addiw	x11,x11,485
    80000ff8:	40010a37          	lui	x20,0x40010
    80000ffc:	014a0a33          	add	x20,x20,x20
    80001000:	100a0a13          	addi	x20,x20,256 # 40010100 <_binary_lab4_test_bin_size+0x3ffefff0>
    80001004:	f04a6003          	lwu	x0,-252(x20)
    80001008:	00c07133          	and	x2,x0,x12
    8000100c:	00fafe33          	and	x28,x21,x15
    80001010:	343ce073          	csrsi	mtval,25
    80001014:	012a02bb          	addw	x5,x20,x18
    80001018:	40010fb7          	lui	x31,0x40010
    8000101c:	01ff8fb3          	add	x31,x31,x31
    80001020:	0d8fc703          	lbu	x14,216(x31) # 400100d8 <_binary_lab4_test_bin_size+0x3ffeffc8>
    80001024:	119b871b          	addiw	x14,x23,281
    80001028:	07fa8b13          	addi	x22,x21,127
    8000102c:	40010237          	lui	x4,0x40010
    80001030:	00420233          	add	x4,x4,x4
    80001034:	10020213          	addi	x4,x4,256 # 40010100 <_binary_lab4_test_bin_size+0x3ffefff0>
    80001038:	fdd23423          	sd	x29,-56(x4) # ffffffffffffffc8 <_binary_lab4_test_bin_end+0xffffffff7ffdfeb8>
    8000103c:	34136e73          	csrrsi	x28,mepc,6
    80001040:	400106b7          	lui	x13,0x40010
    80001044:	00d686b3          	add	x13,x13,x13
    80001048:	10068693          	addi	x13,x13,256 # 40010100 <_binary_lab4_test_bin_size+0x3ffefff0>
    8000104c:	f8c6e003          	lwu	x0,-116(x13)
    80001050:	000578b3          	and	x17,x10,x0
    80001054:	400101b7          	lui	x3,0x40010
    80001058:	003181b3          	add	x3,x3,x3
    8000105c:	10018193          	addi	x3,x3,256 # 40010100 <_binary_lab4_test_bin_size+0x3ffefff0>
    80001060:	ff41e703          	lwu	x14,-12(x3)
    80001064:	40010eb7          	lui	x29,0x40010
    80001068:	01de8eb3          	add	x29,x29,x29
    8000106c:	09de8403          	lb	x8,157(x29) # 4001009d <_binary_lab4_test_bin_size+0x3ffeff8d>
    80001070:	d6eb7413          	andi	x8,x22,-658
    80001074:	00b204bb          	addw	x9,x4,x11
    80001078:	c85ac193          	xori	x3,x21,-891
    8000107c:	3432ddf3          	csrrwi	x27,mtval,5
    80001080:	41d50dbb          	subw	x27,x10,x29
    80001084:	40010137          	lui	x2,0x40010
    80001088:	00210133          	add	x2,x2,x2
    8000108c:	10010113          	addi	x2,x2,256 # 40010100 <_binary_lab4_test_bin_size+0x3ffefff0>
    80001090:	f0011023          	sh	x0,-256(x2)
    80001094:	304bf673          	csrrci	x12,mie,23
    80001098:	9c40091b          	addiw	x18,x0,-1596
    8000109c:	40010737          	lui	x14,0x40010
    800010a0:	00e70733          	add	x14,x14,x14
    800010a4:	03472983          	lw	x19,52(x14) # 40010034 <_binary_lab4_test_bin_size+0x3ffeff24>
    800010a8:	01a2f2b3          	and	x5,x5,x26
    800010ac:	40728533          	sub	x10,x5,x7
    800010b0:	400104b7          	lui	x9,0x40010
    800010b4:	009484b3          	add	x9,x9,x9
    800010b8:	10048493          	addi	x9,x9,256 # 40010100 <_binary_lab4_test_bin_size+0x3ffefff0>
    800010bc:	fa04b003          	ld	x0,-96(x9)
    800010c0:	00e062b3          	or	x5,x0,x14
    800010c4:	40010db7          	lui	x27,0x40010
    800010c8:	01bd8db3          	add	x27,x27,x27
    800010cc:	100d8d93          	addi	x27,x27,256 # 40010100 <_binary_lab4_test_bin_size+0x3ffefff0>
    800010d0:	f10d9f83          	lh	x31,-240(x27)
    800010d4:	003f87b3          	add	x15,x31,x3
    800010d8:	304172f3          	csrrci	x5,mie,2
    800010dc:	4092883b          	subw	x16,x5,x9
    800010e0:	41e3003b          	subw	x0,x6,x30
    800010e4:	c26f6513          	ori	x10,x30,-986
    800010e8:	40010937          	lui	x18,0x40010
    800010ec:	01290933          	add	x18,x18,x18
    800010f0:	10090913          	addi	x18,x18,256 # 40010100 <_binary_lab4_test_bin_size+0x3ffefff0>
    800010f4:	ffc96a03          	lwu	x20,-4(x18)
    800010f8:	0144093b          	addw	x18,x8,x20
    800010fc:	01a28c3b          	addw	x24,x5,x26
    80001100:	40010fb7          	lui	x31,0x40010
    80001104:	01ff8fb3          	add	x31,x31,x31
    80001108:	06ef9483          	lh	x9,110(x31) # 4001006e <_binary_lab4_test_bin_size+0x3ffeff5e>
    8000110c:	009584b3          	add	x9,x11,x9
    80001110:	0170e333          	or	x6,x1,x23
    80001114:	007a4e33          	xor	x28,x20,x7
    80001118:	01b77eb3          	and	x29,x14,x27
    8000111c:	343714f3          	csrrw	x9,mtval,x14
    80001120:	331cfb93          	andi	x23,x25,817
    80001124:	40010837          	lui	x16,0x40010
    80001128:	01080833          	add	x16,x16,x16
    8000112c:	10080813          	addi	x16,x16,256 # 40010100 <_binary_lab4_test_bin_size+0x3ffefff0>
    80001130:	f2e83823          	sd	x14,-208(x16)
    80001134:	341bf373          	csrrci	x6,mepc,23
    80001138:	40010837          	lui	x16,0x40010
    8000113c:	01080833          	add	x16,x16,x16
    80001140:	10080813          	addi	x16,x16,256 # 40010100 <_binary_lab4_test_bin_size+0x3ffefff0>
    80001144:	fa886783          	lwu	x15,-88(x16)
    80001148:	0041f7b3          	and	x15,x3,x4
    8000114c:	40010e37          	lui	x28,0x40010
    80001150:	01ce0e33          	add	x28,x28,x28
    80001154:	036e5903          	lhu	x18,54(x28) # 40010036 <_binary_lab4_test_bin_size+0x3ffeff26>
    80001158:	305be073          	csrsi	mtvec,23
    8000115c:	400108b7          	lui	x17,0x40010
    80001160:	011888b3          	add	x17,x17,x17
    80001164:	0d08a503          	lw	x10,208(x17) # 400100d0 <_binary_lab4_test_bin_size+0x3ffeffc0>
    80001168:	01d560b3          	or	x1,x10,x29
    8000116c:	009ce333          	or	x6,x25,x9
    80001170:	0116cc33          	xor	x24,x13,x17
    80001174:	40010637          	lui	x12,0x40010
    80001178:	00c60633          	add	x12,x12,x12
    8000117c:	08e61a23          	sh	x14,148(x12) # 40010094 <_binary_lab4_test_bin_size+0x3ffeff84>
    80001180:	0172e8b3          	or	x17,x5,x23
    80001184:	01e5e533          	or	x10,x11,x30
    80001188:	00bc0c33          	add	x24,x24,x11
    8000118c:	00204b33          	xor	x22,x0,x2
    80001190:	01937bb3          	and	x23,x6,x25
    80001194:	400106b7          	lui	x13,0x40010
    80001198:	00d686b3          	add	x13,x13,x13
    8000119c:	0f86b083          	ld	x1,248(x13) # 400100f8 <_binary_lab4_test_bin_size+0x3ffeffe8>
    800011a0:	b2f08493          	addi	x9,x1,-1233
    800011a4:	3436e773          	csrrsi	x14,mtval,13
    800011a8:	40010537          	lui	x10,0x40010
    800011ac:	00a50533          	add	x10,x10,x10
    800011b0:	10050513          	addi	x10,x10,256 # 40010100 <_binary_lab4_test_bin_size+0x3ffefff0>
    800011b4:	fac52d83          	lw	x27,-84(x10)
    800011b8:	40010fb7          	lui	x31,0x40010
    800011bc:	01ff8fb3          	add	x31,x31,x31
    800011c0:	100f8f93          	addi	x31,x31,256 # 40010100 <_binary_lab4_test_bin_size+0x3ffefff0>
    800011c4:	fb0fb403          	ld	x8,-80(x31)
    800011c8:	01f478b3          	and	x17,x8,x31
    800011cc:	345cc493          	xori	x9,x25,837
    800011d0:	41360abb          	subw	x21,x12,x19
    800011d4:	afa1841b          	addiw	x8,x3,-1286
    800011d8:	305de773          	csrrsi	x14,mtvec,27
    800011dc:	40010137          	lui	x2,0x40010
    800011e0:	00210133          	add	x2,x2,x2
    800011e4:	0eb106a3          	sb	x11,237(x2) # 400100ed <_binary_lab4_test_bin_size+0x3ffeffdd>
    800011e8:	40fe8c33          	sub	x24,x29,x15
    800011ec:	40760ebb          	subw	x29,x12,x7
    800011f0:	40010e37          	lui	x28,0x40010
    800011f4:	01ce0e33          	add	x28,x28,x28
    800011f8:	100e0e13          	addi	x28,x28,256 # 40010100 <_binary_lab4_test_bin_size+0x3ffefff0>
    800011fc:	f94e4783          	lbu	x15,-108(x28)
    80001200:	00967eb3          	and	x29,x12,x9
    80001204:	019ae5b3          	or	x11,x21,x25
    80001208:	012cf533          	and	x10,x25,x18
    8000120c:	40010e37          	lui	x28,0x40010
    80001210:	01ce0e33          	add	x28,x28,x28
    80001214:	0fae0a03          	lb	x20,250(x28) # 400100fa <_binary_lab4_test_bin_size+0x3ffeffea>
    80001218:	01f76733          	or	x14,x14,x31
    8000121c:	51004713          	xori	x14,x0,1296
    80001220:	40fb8a33          	sub	x20,x23,x15
    80001224:	01a9e6b3          	or	x13,x19,x26
    80001228:	1b24031b          	addiw	x6,x8,434
    8000122c:	b6f64613          	xori	x12,x12,-1169
    80001230:	40010f37          	lui	x30,0x40010
    80001234:	01ef0f33          	add	x30,x30,x30
    80001238:	030f4c83          	lbu	x25,48(x30) # 40010030 <_binary_lab4_test_bin_size+0x3ffeff20>
    8000123c:	41e78cbb          	subw	x25,x15,x30
    80001240:	3414f673          	csrrci	x12,mepc,9
    80001244:	34227bf3          	csrrci	x23,mcause,4
    80001248:	40010737          	lui	x14,0x40010
    8000124c:	00e70733          	add	x14,x14,x14
    80001250:	04871803          	lh	x16,72(x14) # 40010048 <_binary_lab4_test_bin_size+0x3ffeff38>
    80001254:	38a84113          	xori	x2,x16,906
    80001258:	00e3ceb3          	xor	x29,x7,x14
    8000125c:	40c209b3          	sub	x19,x4,x12
    80001260:	3417d473          	csrrwi	x8,mepc,15
    80001264:	0051ceb3          	xor	x29,x3,x5
    80001268:	40010cb7          	lui	x25,0x40010
    8000126c:	019c8cb3          	add	x25,x25,x25
    80001270:	100c8c93          	addi	x25,x25,256 # 40010100 <_binary_lab4_test_bin_size+0x3ffefff0>
    80001274:	f1ec9223          	sh	x30,-252(x25)
    80001278:	a0d8ca13          	xori	x20,x17,-1523
    8000127c:	40010237          	lui	x4,0x40010
    80001280:	00420233          	add	x4,x4,x4
    80001284:	0e823603          	ld	x12,232(x4) # 400100e8 <_binary_lab4_test_bin_size+0x3ffeffd8>
    80001288:	4151803b          	subw	x0,x3,x21
    8000128c:	40010337          	lui	x6,0x40010
    80001290:	00630333          	add	x6,x6,x6
    80001294:	10030313          	addi	x6,x6,256 # 40010100 <_binary_lab4_test_bin_size+0x3ffefff0>
    80001298:	f2333023          	sd	x3,-224(x6)
    8000129c:	343d1b73          	csrrw	x22,mtval,x26
    800012a0:	2cca7d13          	andi	x26,x20,716
    800012a4:	50b88b93          	addi	x23,x17,1291
    800012a8:	40010137          	lui	x2,0x40010
    800012ac:	00210133          	add	x2,x2,x2
    800012b0:	10010113          	addi	x2,x2,256 # 40010100 <_binary_lab4_test_bin_size+0x3ffefff0>
    800012b4:	fef10603          	lb	x12,-17(x2)
    800012b8:	2df4039b          	addiw	x7,x8,735
    800012bc:	1eee0a13          	addi	x20,x28,494
    800012c0:	40010c37          	lui	x24,0x40010
    800012c4:	018c0c33          	add	x24,x24,x24
    800012c8:	100c0c13          	addi	x24,x24,256 # 40010100 <_binary_lab4_test_bin_size+0x3ffefff0>
    800012cc:	fe7c1c23          	sh	x7,-8(x24)
    800012d0:	30515d73          	csrrwi	x26,mtvec,2
    800012d4:	40fc8dbb          	subw	x27,x25,x15
    800012d8:	341c1773          	csrrw	x14,mepc,x24
    800012dc:	400105b7          	lui	x11,0x40010
    800012e0:	00b585b3          	add	x11,x11,x11
    800012e4:	10058593          	addi	x11,x11,256 # 40010100 <_binary_lab4_test_bin_size+0x3ffefff0>
    800012e8:	f635b823          	sd	x3,-144(x11)
    800012ec:	400100b7          	lui	x1,0x40010
    800012f0:	001080b3          	add	x1,x1,x1
    800012f4:	0880c983          	lbu	x19,136(x1) # 40010088 <_binary_lab4_test_bin_size+0x3ffeff78>
    800012f8:	40010eb7          	lui	x29,0x40010
    800012fc:	01de8eb3          	add	x29,x29,x29
    80001300:	100e8e93          	addi	x29,x29,256 # 40010100 <_binary_lab4_test_bin_size+0x3ffefff0>
    80001304:	fb8ea583          	lw	x11,-72(x29)
    80001308:	40010bb7          	lui	x23,0x40010
    8000130c:	017b8bb3          	add	x23,x23,x23
    80001310:	100b8b93          	addi	x23,x23,256 # 40010100 <_binary_lab4_test_bin_size+0x3ffefff0>
    80001314:	f08be883          	lwu	x17,-248(x23)
    80001318:	83e36d13          	ori	x26,x6,-1986
    8000131c:	00bd0b3b          	addw	x22,x26,x11
    80001320:	34167ef3          	csrrci	x29,mepc,12
    80001324:	6ffe0b13          	addi	x22,x28,1791
    80001328:	40010737          	lui	x14,0x40010
    8000132c:	00e70733          	add	x14,x14,x14
    80001330:	10070713          	addi	x14,x14,256 # 40010100 <_binary_lab4_test_bin_size+0x3ffefff0>
    80001334:	f8475603          	lhu	x12,-124(x14)
    80001338:	592c4893          	xori	x17,x24,1426
    8000133c:	40010337          	lui	x6,0x40010
    80001340:	00630333          	add	x6,x6,x6
    80001344:	0d532423          	sw	x21,200(x6) # 400100c8 <_binary_lab4_test_bin_size+0x3ffeffb8>
    80001348:	4065823b          	subw	x4,x11,x6
    8000134c:	40010137          	lui	x2,0x40010
    80001350:	00210133          	add	x2,x2,x2
    80001354:	0f114083          	lbu	x1,241(x2) # 400100f1 <_binary_lab4_test_bin_size+0x3ffeffe1>
    80001358:	91566593          	ori	x11,x12,-1771
    8000135c:	00dee633          	or	x12,x29,x13
    80001360:	9e32cd13          	xori	x26,x5,-1565
    80001364:	40010937          	lui	x18,0x40010
    80001368:	01290933          	add	x18,x18,x18
    8000136c:	0a093383          	ld	x7,160(x18) # 400100a0 <_binary_lab4_test_bin_size+0x3ffeff90>
    80001370:	01734b33          	xor	x22,x6,x23
    80001374:	341490f3          	csrrw	x1,mepc,x9
    80001378:	400108b7          	lui	x17,0x40010
    8000137c:	011888b3          	add	x17,x17,x17
    80001380:	10088893          	addi	x17,x17,256 # 40010100 <_binary_lab4_test_bin_size+0x3ffefff0>
    80001384:	fa989f23          	sh	x9,-66(x17)
    80001388:	fb350513          	addi	x10,x10,-77
    8000138c:	40010a37          	lui	x20,0x40010
    80001390:	014a0a33          	add	x20,x20,x20
    80001394:	100a0a13          	addi	x20,x20,256 # 40010100 <_binary_lab4_test_bin_size+0x3ffefff0>
    80001398:	fd0a3e03          	ld	x28,-48(x20)
    8000139c:	2520fe13          	andi	x28,x1,594
    800013a0:	34416af3          	csrrsi	x21,mip,2
    800013a4:	400101b7          	lui	x3,0x40010
    800013a8:	003181b3          	add	x3,x3,x3
    800013ac:	10018193          	addi	x3,x3,256 # 40010100 <_binary_lab4_test_bin_size+0x3ffefff0>
    800013b0:	fff19023          	sh	x31,-32(x3)
    800013b4:	40010937          	lui	x18,0x40010
    800013b8:	01290933          	add	x18,x18,x18
    800013bc:	07d94103          	lbu	x2,125(x18) # 4001007d <_binary_lab4_test_bin_size+0x3ffeff6d>
    800013c0:	400d0133          	sub	x2,x26,x0
    800013c4:	b616851b          	addiw	x10,x13,-1183
    800013c8:	40010db7          	lui	x27,0x40010
    800013cc:	01bd8db3          	add	x27,x27,x27
    800013d0:	060db423          	sd	x0,104(x27) # 40010068 <_binary_lab4_test_bin_size+0x3ffeff58>
    800013d4:	00320b3b          	addw	x22,x4,x3
    800013d8:	00a0c7b3          	xor	x15,x1,x10
    800013dc:	3045dc73          	csrrwi	x24,mie,11
    800013e0:	96d6cd93          	xori	x27,x13,-1683
    800013e4:	304173f3          	csrrci	x7,mie,2
    800013e8:	400103b7          	lui	x7,0x40010
    800013ec:	007383b3          	add	x7,x7,x7
    800013f0:	0223b823          	sd	x2,48(x7) # 40010030 <_binary_lab4_test_bin_size+0x3ffeff20>
    800013f4:	c31fed13          	ori	x26,x31,-975
    800013f8:	344b7473          	csrrci	x8,mip,22
    800013fc:	41670dbb          	subw	x27,x14,x22
    80001400:	343f68f3          	csrrsi	x17,mtval,30
    80001404:	2fb7e813          	ori	x16,x15,763
    80001408:	400105b7          	lui	x11,0x40010
    8000140c:	00b585b3          	add	x11,x11,x11
    80001410:	0e75c003          	lbu	x0,231(x11) # 400100e7 <_binary_lab4_test_bin_size+0x3ffeffd7>
    80001414:	400105b7          	lui	x11,0x40010
    80001418:	00b585b3          	add	x11,x11,x11
    8000141c:	01e5dc03          	lhu	x24,30(x11) # 4001001e <_binary_lab4_test_bin_size+0x3ffeff0e>
    80001420:	5fb27293          	andi	x5,x4,1531
    80001424:	400103b7          	lui	x7,0x40010
    80001428:	007383b3          	add	x7,x7,x7
    8000142c:	10038393          	addi	x7,x7,256 # 40010100 <_binary_lab4_test_bin_size+0x3ffefff0>
    80001430:	f583b703          	ld	x14,-168(x7)
    80001434:	40798d3b          	subw	x26,x19,x7
    80001438:	343dfcf3          	csrrci	x25,mtval,27
    8000143c:	40010db7          	lui	x27,0x40010
    80001440:	01bd8db3          	add	x27,x27,x27
    80001444:	096ddc03          	lhu	x24,150(x27) # 40010096 <_binary_lab4_test_bin_size+0x3ffeff86>
    80001448:	013cfc33          	and	x24,x25,x19
    8000144c:	11808793          	addi	x15,x1,280
    80001450:	6a0b4313          	xori	x6,x22,1696
    80001454:	400100b7          	lui	x1,0x40010
    80001458:	001080b3          	add	x1,x1,x1
    8000145c:	10008093          	addi	x1,x1,256 # 40010100 <_binary_lab4_test_bin_size+0x3ffefff0>
    80001460:	f2c09903          	lh	x18,-212(x1)
    80001464:	6039059b          	addiw	x11,x18,1539
    80001468:	40128c3b          	subw	x24,x5,x1
    8000146c:	34459ff3          	csrrw	x31,mip,x11
    80001470:	305953f3          	csrrwi	x7,mtvec,18
    80001474:	013bc733          	xor	x14,x23,x19
    80001478:	01b86db3          	or	x27,x16,x27
    8000147c:	b38f0f9b          	addiw	x31,x30,-1224
    80001480:	41580d3b          	subw	x26,x16,x21
    80001484:	690af913          	andi	x18,x21,1680
    80001488:	341461f3          	csrrsi	x3,mepc,8
    8000148c:	400109b7          	lui	x19,0x40010
    80001490:	013989b3          	add	x19,x19,x19
    80001494:	10098993          	addi	x19,x19,256 # 40010100 <_binary_lab4_test_bin_size+0x3ffefff0>
    80001498:	f2d99e23          	sh	x13,-196(x19)
    8000149c:	40010837          	lui	x16,0x40010
    800014a0:	01080833          	add	x16,x16,x16
    800014a4:	0b280083          	lb	x1,178(x16) # 400100b2 <_binary_lab4_test_bin_size+0x3ffeffa2>
    800014a8:	36c0ef13          	ori	x30,x1,876
    800014ac:	3c52e593          	ori	x11,x5,965
    800014b0:	40010137          	lui	x2,0x40010
    800014b4:	00210133          	add	x2,x2,x2
    800014b8:	08410e83          	lb	x29,132(x2) # 40010084 <_binary_lab4_test_bin_size+0x3ffeff74>
    800014bc:	400101b7          	lui	x3,0x40010
    800014c0:	003181b3          	add	x3,x3,x3
    800014c4:	10018193          	addi	x3,x3,256 # 40010100 <_binary_lab4_test_bin_size+0x3ffefff0>
    800014c8:	f9c18b03          	lb	x22,-100(x3)
    800014cc:	00a04b33          	xor	x22,x0,x10
    800014d0:	400106b7          	lui	x13,0x40010
    800014d4:	00d686b3          	add	x13,x13,x13
    800014d8:	10068693          	addi	x13,x13,256 # 40010100 <_binary_lab4_test_bin_size+0x3ffefff0>
    800014dc:	f206e303          	lwu	x6,-224(x13)
    800014e0:	26c34313          	xori	x6,x6,620
    800014e4:	01e0c2b3          	xor	x5,x1,x30
    800014e8:	40010db7          	lui	x27,0x40010
    800014ec:	01bd8db3          	add	x27,x27,x27
    800014f0:	03cdc803          	lbu	x16,60(x27) # 4001003c <_binary_lab4_test_bin_size+0x3ffeff2c>
    800014f4:	d2a57413          	andi	x8,x10,-726
    800014f8:	40010637          	lui	x12,0x40010
    800014fc:	00c60633          	add	x12,x12,x12
    80001500:	10060613          	addi	x12,x12,256 # 40010100 <_binary_lab4_test_bin_size+0x3ffefff0>
    80001504:	f6761123          	sh	x7,-158(x12)
    80001508:	40010137          	lui	x2,0x40010
    8000150c:	00210133          	add	x2,x2,x2
    80001510:	10010113          	addi	x2,x2,256 # 40010100 <_binary_lab4_test_bin_size+0x3ffefff0>
    80001514:	f9810623          	sb	x24,-116(x2)
    80001518:	01a9063b          	addw	x12,x18,x26
    8000151c:	006274b3          	and	x9,x4,x6
    80001520:	400105b7          	lui	x11,0x40010
    80001524:	00b585b3          	add	x11,x11,x11
    80001528:	10058593          	addi	x11,x11,256 # 40010100 <_binary_lab4_test_bin_size+0x3ffefff0>
    8000152c:	fff5b423          	sd	x31,-24(x11)
    80001530:	67e88893          	addi	x17,x17,1662
    80001534:	40010db7          	lui	x27,0x40010
    80001538:	01bd8db3          	add	x27,x27,x27
    8000153c:	0c0dc603          	lbu	x12,192(x27) # 400100c0 <_binary_lab4_test_bin_size+0x3ffeffb0>
    80001540:	000e043b          	addw	x8,x28,x0
    80001544:	40010cb7          	lui	x25,0x40010
    80001548:	019c8cb3          	add	x25,x25,x25
    8000154c:	026ca023          	sw	x6,32(x25) # 40010020 <_binary_lab4_test_bin_size+0x3ffeff10>
    80001550:	400106b7          	lui	x13,0x40010
    80001554:	00d686b3          	add	x13,x13,x13
    80001558:	10068693          	addi	x13,x13,256 # 40010100 <_binary_lab4_test_bin_size+0x3ffefff0>
    8000155c:	fa86ad83          	lw	x27,-88(x13)
    80001560:	40010c37          	lui	x24,0x40010
    80001564:	018c0c33          	add	x24,x24,x24
    80001568:	100c0c13          	addi	x24,x24,256 # 40010100 <_binary_lab4_test_bin_size+0x3ffefff0>
    8000156c:	f1fc2223          	sw	x31,-252(x24)
    80001570:	40010437          	lui	x8,0x40010
    80001574:	00840433          	add	x8,x8,x8
    80001578:	01042903          	lw	x18,16(x8) # 40010010 <_binary_lab4_test_bin_size+0x3ffeff00>
    8000157c:	01ac42b3          	xor	x5,x24,x26
    80001580:	40010b37          	lui	x22,0x40010
    80001584:	016b0b33          	add	x22,x22,x22
    80001588:	100b0b13          	addi	x22,x22,256 # 40010100 <_binary_lab4_test_bin_size+0x3ffefff0>
    8000158c:	fb4b1423          	sh	x20,-88(x22)
    80001590:	842be993          	ori	x19,x23,-1982
    80001594:	40010fb7          	lui	x31,0x40010
    80001598:	01ff8fb3          	add	x31,x31,x31
    8000159c:	100f8f93          	addi	x31,x31,256 # 40010100 <_binary_lab4_test_bin_size+0x3ffefff0>
    800015a0:	facfab03          	lw	x22,-84(x31)
    800015a4:	43db7c93          	andi	x25,x22,1085
    800015a8:	400104b7          	lui	x9,0x40010
    800015ac:	009484b3          	add	x9,x9,x9
    800015b0:	0ec4a403          	lw	x8,236(x9) # 400100ec <_binary_lab4_test_bin_size+0x3ffeffdc>
    800015b4:	aaec0893          	addi	x17,x24,-1362
    800015b8:	40010137          	lui	x2,0x40010
    800015bc:	00210133          	add	x2,x2,x2
    800015c0:	01f10283          	lb	x5,31(x2) # 4001001f <_binary_lab4_test_bin_size+0x3ffeff0f>
    800015c4:	40010c37          	lui	x24,0x40010
    800015c8:	018c0c33          	add	x24,x24,x24
    800015cc:	100c0c13          	addi	x24,x24,256 # 40010100 <_binary_lab4_test_bin_size+0x3ffefff0>
    800015d0:	f04c4503          	lbu	x10,-252(x24)
    800015d4:	009507b3          	add	x15,x10,x9
    800015d8:	2dae6e93          	ori	x29,x28,730
    800015dc:	415b0cb3          	sub	x25,x22,x21
    800015e0:	192c809b          	addiw	x1,x25,402
    800015e4:	01eb0c3b          	addw	x24,x22,x30
    800015e8:	0037e4b3          	or	x9,x15,x3
    800015ec:	400103b7          	lui	x7,0x40010
    800015f0:	007383b3          	add	x7,x7,x7
    800015f4:	10038393          	addi	x7,x7,256 # 40010100 <_binary_lab4_test_bin_size+0x3ffefff0>
    800015f8:	fa13c583          	lbu	x11,-95(x7)
    800015fc:	41f002b3          	neg	x5,x31
    80001600:	40010837          	lui	x16,0x40010
    80001604:	01080833          	add	x16,x16,x16
    80001608:	10080813          	addi	x16,x16,256 # 40010100 <_binary_lab4_test_bin_size+0x3ffefff0>
    8000160c:	f1880483          	lb	x9,-232(x16)
    80001610:	01036c33          	or	x24,x6,x16
    80001614:	40010b37          	lui	x22,0x40010
    80001618:	016b0b33          	add	x22,x22,x22
    8000161c:	100b0b13          	addi	x22,x22,256 # 40010100 <_binary_lab4_test_bin_size+0x3ffefff0>
    80001620:	f18b6403          	lwu	x8,-232(x22)
    80001624:	008861b3          	or	x3,x16,x8
    80001628:	01084b33          	xor	x22,x16,x16
    8000162c:	400102b7          	lui	x5,0x40010
    80001630:	005282b3          	add	x5,x5,x5
    80001634:	0a5286a3          	sb	x5,173(x5) # 400100ad <_binary_lab4_test_bin_size+0x3ffeff9d>
    80001638:	40010137          	lui	x2,0x40010
    8000163c:	00210133          	add	x2,x2,x2
    80001640:	10010113          	addi	x2,x2,256 # 40010100 <_binary_lab4_test_bin_size+0x3ffefff0>
    80001644:	f8412223          	sw	x4,-124(x2)
    80001648:	343c7473          	csrrci	x8,mtval,24
    8000164c:	40010937          	lui	x18,0x40010
    80001650:	01290933          	add	x18,x18,x18
    80001654:	10090913          	addi	x18,x18,256 # 40010100 <_binary_lab4_test_bin_size+0x3ffefff0>
    80001658:	fe690323          	sb	x6,-26(x18)
    8000165c:	400101b7          	lui	x3,0x40010
    80001660:	003181b3          	add	x3,x3,x3
    80001664:	10018193          	addi	x3,x3,256 # 40010100 <_binary_lab4_test_bin_size+0x3ffefff0>
    80001668:	f601bf83          	ld	x31,-160(x3)
    8000166c:	86e27f93          	andi	x31,x4,-1938
    80001670:	1aca0b9b          	addiw	x23,x20,428
    80001674:	002c71b3          	and	x3,x24,x2
    80001678:	9e7f0e1b          	addiw	x28,x30,-1561
    8000167c:	09b2fa93          	andi	x21,x5,155
    80001680:	400102b7          	lui	x5,0x40010
    80001684:	005282b3          	add	x5,x5,x5
    80001688:	10028293          	addi	x5,x5,256 # 40010100 <_binary_lab4_test_bin_size+0x3ffefff0>
    8000168c:	ff928ea3          	sb	x25,-3(x5)
    80001690:	40010737          	lui	x14,0x40010
    80001694:	00e70733          	add	x14,x14,x14
    80001698:	10070713          	addi	x14,x14,256 # 40010100 <_binary_lab4_test_bin_size+0x3ffefff0>
    8000169c:	f7873483          	ld	x9,-136(x14)
    800016a0:	012364b3          	or	x9,x6,x18
    800016a4:	01846cb3          	or	x25,x8,x24
    800016a8:	40010c37          	lui	x24,0x40010
    800016ac:	018c0c33          	add	x24,x24,x24
    800016b0:	100c0c13          	addi	x24,x24,256 # 40010100 <_binary_lab4_test_bin_size+0x3ffefff0>
    800016b4:	ff4c1923          	sh	x20,-14(x24)
    800016b8:	400106b7          	lui	x13,0x40010
    800016bc:	00d686b3          	add	x13,x13,x13
    800016c0:	0736b823          	sd	x19,112(x13) # 40010070 <_binary_lab4_test_bin_size+0x3ffeff60>
    800016c4:	40010637          	lui	x12,0x40010
    800016c8:	00c60633          	add	x12,x12,x12
    800016cc:	10060613          	addi	x12,x12,256 # 40010100 <_binary_lab4_test_bin_size+0x3ffefff0>
    800016d0:	f9066083          	lwu	x1,-112(x12)
    800016d4:	7ef90e9b          	addiw	x29,x18,2031
    800016d8:	40010c37          	lui	x24,0x40010
    800016dc:	018c0c33          	add	x24,x24,x24
    800016e0:	100c0c13          	addi	x24,x24,256 # 40010100 <_binary_lab4_test_bin_size+0x3ffefff0>
    800016e4:	f7dc3423          	sd	x29,-152(x24)
    800016e8:	55e96c93          	ori	x25,x18,1374
    800016ec:	af254f93          	xori	x31,x10,-1294
    800016f0:	415508b3          	sub	x17,x10,x21
    800016f4:	400104b7          	lui	x9,0x40010
    800016f8:	009484b3          	add	x9,x9,x9
    800016fc:	0994b823          	sd	x25,144(x9) # 40010090 <_binary_lab4_test_bin_size+0x3ffeff80>
    80001700:	3c3d4893          	xori	x17,x26,963
    80001704:	41dc843b          	subw	x8,x25,x29
    80001708:	0eb96e93          	ori	x29,x18,235
    8000170c:	0a60f213          	andi	x4,x1,166
    80001710:	9de70a9b          	addiw	x21,x14,-1570
    80001714:	30591d73          	csrrw	x26,mtvec,x18
    80001718:	00eee3b3          	or	x7,x29,x14
    8000171c:	400107b7          	lui	x15,0x40010
    80001720:	00f787b3          	add	x15,x15,x15
    80001724:	10078793          	addi	x15,x15,256 # 40010100 <_binary_lab4_test_bin_size+0x3ffefff0>
    80001728:	f1578f83          	lb	x31,-235(x15)
    8000172c:	06a06f93          	ori	x31,x0,106
    80001730:	400106b7          	lui	x13,0x40010
    80001734:	00d686b3          	add	x13,x13,x13
    80001738:	0ac69923          	sh	x12,178(x13) # 400100b2 <_binary_lab4_test_bin_size+0x3ffeffa2>
    8000173c:	3412fff3          	csrrci	x31,mepc,5
    80001740:	40010637          	lui	x12,0x40010
    80001744:	00c60633          	add	x12,x12,x12
    80001748:	10060613          	addi	x12,x12,256 # 40010100 <_binary_lab4_test_bin_size+0x3ffefff0>
    8000174c:	f1861b03          	lh	x22,-232(x12)
    80001750:	006b4eb3          	xor	x29,x22,x6
    80001754:	40010737          	lui	x14,0x40010
    80001758:	00e70733          	add	x14,x14,x14
    8000175c:	10070713          	addi	x14,x14,256 # 40010100 <_binary_lab4_test_bin_size+0x3ffefff0>
    80001760:	f0873683          	ld	x13,-248(x14)
    80001764:	012206b3          	add	x13,x4,x18
    80001768:	305998f3          	csrrw	x17,mtvec,x19
    8000176c:	01bb4233          	xor	x4,x22,x27
    80001770:	3043f573          	csrrci	x10,mie,7
    80001774:	9e0f851b          	addiw	x10,x31,-1568
    80001778:	30457073          	csrci	mie,10
    8000177c:	da450113          	addi	x2,x10,-604
    80001780:	40010d37          	lui	x26,0x40010
    80001784:	01ad0d33          	add	x26,x26,x26
    80001788:	0d5d4403          	lbu	x8,213(x26) # 400100d5 <_binary_lab4_test_bin_size+0x3ffeffc5>
    8000178c:	d819fc13          	andi	x24,x19,-639
    80001790:	00367fb3          	and	x31,x12,x3
    80001794:	014a0933          	add	x18,x20,x20
    80001798:	40010237          	lui	x4,0x40010
    8000179c:	00420233          	add	x4,x4,x4
    800017a0:	0fa20403          	lb	x8,250(x4) # 400100fa <_binary_lab4_test_bin_size+0x3ffeffea>
    800017a4:	40718133          	sub	x2,x3,x7
    800017a8:	400104b7          	lui	x9,0x40010
    800017ac:	009484b3          	add	x9,x9,x9
    800017b0:	10048493          	addi	x9,x9,256 # 40010100 <_binary_lab4_test_bin_size+0x3ffefff0>
    800017b4:	f084b583          	ld	x11,-248(x9)
    800017b8:	342d1c73          	csrrw	x24,mcause,x26
    800017bc:	400109b7          	lui	x19,0x40010
    800017c0:	013989b3          	add	x19,x19,x19
    800017c4:	10098993          	addi	x19,x19,256 # 40010100 <_binary_lab4_test_bin_size+0x3ffefff0>
    800017c8:	fda9d283          	lhu	x5,-38(x19)
    800017cc:	abcbe793          	ori	x15,x23,-1348
    800017d0:	400104b7          	lui	x9,0x40010
    800017d4:	009484b3          	add	x9,x9,x9
    800017d8:	10048493          	addi	x9,x9,256 # 40010100 <_binary_lab4_test_bin_size+0x3ffefff0>
    800017dc:	fe44e503          	lwu	x10,-28(x9)
    800017e0:	016d7633          	and	x12,x26,x22
    800017e4:	400103b7          	lui	x7,0x40010
    800017e8:	007383b3          	add	x7,x7,x7
    800017ec:	10038393          	addi	x7,x7,256 # 40010100 <_binary_lab4_test_bin_size+0x3ffefff0>
    800017f0:	fbb3aa23          	sw	x27,-76(x7)
    800017f4:	595c7893          	andi	x17,x24,1429
    800017f8:	400101b7          	lui	x3,0x40010
    800017fc:	003181b3          	add	x3,x3,x3
    80001800:	0a81b303          	ld	x6,168(x3) # 400100a8 <_binary_lab4_test_bin_size+0x3ffeff98>
    80001804:	40638bb3          	sub	x23,x7,x6
    80001808:	34119df3          	csrrw	x27,mepc,x3
    8000180c:	011473b3          	and	x7,x8,x17
    80001810:	c4a56513          	ori	x10,x10,-950
    80001814:	00e085bb          	addw	x11,x1,x14
    80001818:	40010f37          	lui	x30,0x40010
    8000181c:	01ef0f33          	add	x30,x30,x30
    80001820:	0bdf0b83          	lb	x23,189(x30) # 400100bd <_binary_lab4_test_bin_size+0x3ffeffad>
    80001824:	01fbf7b3          	and	x15,x23,x31
    80001828:	0182cb33          	xor	x22,x5,x24
    8000182c:	400105b7          	lui	x11,0x40010
    80001830:	00b585b3          	add	x11,x11,x11
    80001834:	02959523          	sh	x9,42(x11) # 4001002a <_binary_lab4_test_bin_size+0x3ffeff1a>
    80001838:	84456093          	ori	x1,x10,-1980
    8000183c:	005a8e3b          	addw	x28,x21,x5
    80001840:	400104b7          	lui	x9,0x40010
    80001844:	009484b3          	add	x9,x9,x9
    80001848:	06a4db83          	lhu	x23,106(x9) # 4001006a <_binary_lab4_test_bin_size+0x3ffeff5a>
    8000184c:	017b8a33          	add	x20,x23,x23
    80001850:	00d36533          	or	x10,x6,x13
    80001854:	017281bb          	addw	x3,x5,x23
    80001858:	38304093          	xori	x1,x0,899
    8000185c:	30447ef3          	csrrci	x29,mie,8
    80001860:	400108b7          	lui	x17,0x40010
    80001864:	011888b3          	add	x17,x17,x17
    80001868:	10088893          	addi	x17,x17,256 # 40010100 <_binary_lab4_test_bin_size+0x3ffefff0>
    8000186c:	f748b023          	sd	x20,-160(x17)
    80001870:	40010fb7          	lui	x31,0x40010
    80001874:	01ff8fb3          	add	x31,x31,x31
    80001878:	07efb823          	sd	x30,112(x31) # 40010070 <_binary_lab4_test_bin_size+0x3ffeff60>
    8000187c:	9331e993          	ori	x19,x3,-1741
    80001880:	40010ab7          	lui	x21,0x40010
    80001884:	015a8ab3          	add	x21,x21,x21
    80001888:	100a8a93          	addi	x21,x21,256 # 40010100 <_binary_lab4_test_bin_size+0x3ffefff0>
    8000188c:	f84ad003          	lhu	x0,-124(x21)
    80001890:	0119843b          	addw	x8,x19,x17
    80001894:	31c58e13          	addi	x28,x11,796
    80001898:	40010437          	lui	x8,0x40010
    8000189c:	00840433          	add	x8,x8,x8
    800018a0:	0da41e23          	sh	x26,220(x8) # 400100dc <_binary_lab4_test_bin_size+0x3ffeffcc>
    800018a4:	2bcdee93          	ori	x29,x27,700
    800018a8:	400107b7          	lui	x15,0x40010
    800018ac:	00f787b3          	add	x15,x15,x15
    800018b0:	10078793          	addi	x15,x15,256 # 40010100 <_binary_lab4_test_bin_size+0x3ffefff0>
    800018b4:	fa47c703          	lbu	x14,-92(x15)
    800018b8:	3fbd7113          	andi	x2,x26,1019
    800018bc:	40010937          	lui	x18,0x40010
    800018c0:	01290933          	add	x18,x18,x18
    800018c4:	10090913          	addi	x18,x18,256 # 40010100 <_binary_lab4_test_bin_size+0x3ffefff0>
    800018c8:	fa9908a3          	sb	x9,-79(x18)
    800018cc:	007a82bb          	addw	x5,x21,x7
    800018d0:	3418e473          	csrrsi	x8,mepc,17
    800018d4:	a6966113          	ori	x2,x12,-1431
    800018d8:	400102b7          	lui	x5,0x40010
    800018dc:	005282b3          	add	x5,x5,x5
    800018e0:	0452bc23          	sd	x5,88(x5) # 40010058 <_binary_lab4_test_bin_size+0x3ffeff48>
    800018e4:	341d57f3          	csrrwi	x15,mepc,26
    800018e8:	40010eb7          	lui	x29,0x40010
    800018ec:	01de8eb3          	add	x29,x29,x29
    800018f0:	01fe8da3          	sb	x31,27(x29) # 4001001b <_binary_lab4_test_bin_size+0x3ffeff0b>
    800018f4:	400103b7          	lui	x7,0x40010
    800018f8:	007383b3          	add	x7,x7,x7
    800018fc:	0323a423          	sw	x18,40(x7) # 40010028 <_binary_lab4_test_bin_size+0x3ffeff18>
    80001900:	40010a37          	lui	x20,0x40010
    80001904:	014a0a33          	add	x20,x20,x20
    80001908:	100a0a13          	addi	x20,x20,256 # 40010100 <_binary_lab4_test_bin_size+0x3ffefff0>
    8000190c:	fe6a4383          	lbu	x7,-26(x20)
    80001910:	416503b3          	sub	x7,x10,x22
    80001914:	40010c37          	lui	x24,0x40010
    80001918:	018c0c33          	add	x24,x24,x24
    8000191c:	03bc3823          	sd	x27,48(x24) # 40010030 <_binary_lab4_test_bin_size+0x3ffeff20>
    80001920:	40010f37          	lui	x30,0x40010
    80001924:	01ef0f33          	add	x30,x30,x30
    80001928:	0c7f0803          	lb	x16,199(x30) # 400100c7 <_binary_lab4_test_bin_size+0x3ffeffb7>
    8000192c:	160af513          	andi	x10,x21,352
    80001930:	01c24b33          	xor	x22,x4,x28
    80001934:	40010bb7          	lui	x23,0x40010
    80001938:	017b8bb3          	add	x23,x23,x23
    8000193c:	100b8b93          	addi	x23,x23,256 # 40010100 <_binary_lab4_test_bin_size+0x3ffefff0>
    80001940:	f72bcd83          	lbu	x27,-142(x23)
    80001944:	42edc613          	xori	x12,x27,1070
    80001948:	40010237          	lui	x4,0x40010
    8000194c:	00420233          	add	x4,x4,x4
    80001950:	0d221403          	lh	x8,210(x4) # 400100d2 <_binary_lab4_test_bin_size+0x3ffeffc2>
    80001954:	305c7c73          	csrrci	x24,mtvec,24
    80001958:	01568bbb          	addw	x23,x13,x21
    8000195c:	400103b7          	lui	x7,0x40010
    80001960:	007383b3          	add	x7,x7,x7
    80001964:	10038393          	addi	x7,x7,256 # 40010100 <_binary_lab4_test_bin_size+0x3ffefff0>
    80001968:	f8738b83          	lb	x23,-121(x7)
    8000196c:	0049fbb3          	and	x23,x19,x4
    80001970:	01e57d33          	and	x26,x10,x30
    80001974:	3043e2f3          	csrrsi	x5,mie,7
    80001978:	342f54f3          	csrrwi	x9,mcause,30
    8000197c:	0008c833          	xor	x16,x17,x0
    80001980:	81000b13          	li	x22,-2032
    80001984:	00b4e0b3          	or	x1,x9,x11
    80001988:	01a38833          	add	x16,x7,x26
    8000198c:	34407d73          	csrrci	x26,mip,0
    80001990:	342b54f3          	csrrwi	x9,mcause,22
    80001994:	30576bf3          	csrrsi	x23,mtvec,14
    80001998:	400104b7          	lui	x9,0x40010
    8000199c:	009484b3          	add	x9,x9,x9
    800019a0:	10048493          	addi	x9,x9,256 # 40010100 <_binary_lab4_test_bin_size+0x3ffefff0>
    800019a4:	ff24cd03          	lbu	x26,-14(x9)
    800019a8:	cc5f881b          	addiw	x16,x31,-827
    800019ac:	002244b3          	xor	x9,x4,x2
    800019b0:	34231a73          	csrrw	x20,mcause,x6
    800019b4:	00327233          	and	x4,x4,x3
    800019b8:	41ac8eb3          	sub	x29,x25,x26
    800019bc:	40010737          	lui	x14,0x40010
    800019c0:	00e70733          	add	x14,x14,x14
    800019c4:	10070713          	addi	x14,x14,256 # 40010100 <_binary_lab4_test_bin_size+0x3ffefff0>
    800019c8:	f5271f03          	lh	x30,-174(x14)
    800019cc:	404b02bb          	subw	x5,x22,x4
    800019d0:	3410faf3          	csrrci	x21,mepc,1
    800019d4:	0179ffb3          	and	x31,x19,x23
    800019d8:	40010eb7          	lui	x29,0x40010
    800019dc:	01de8eb3          	add	x29,x29,x29
    800019e0:	100e8e93          	addi	x29,x29,256 # 40010100 <_binary_lab4_test_bin_size+0x3ffefff0>
    800019e4:	f72e8683          	lb	x13,-142(x29)
    800019e8:	0966f693          	andi	x13,x13,150
    800019ec:	40b18133          	sub	x2,x3,x11
    800019f0:	344af073          	csrci	mip,21
    800019f4:	4166023b          	subw	x4,x12,x22
    800019f8:	00c40d3b          	addw	x26,x8,x12
    800019fc:	41e482bb          	subw	x5,x9,x30
    80001a00:	8378029b          	addiw	x5,x16,-1993
    80001a04:	7e91c613          	xori	x12,x3,2025
    80001a08:	19c0099b          	addiw	x19,x0,412
    80001a0c:	b7e8f893          	andi	x17,x17,-1154
    80001a10:	793d7913          	andi	x18,x26,1939
    80001a14:	869ee393          	ori	x7,x29,-1943
    80001a18:	40010937          	lui	x18,0x40010
    80001a1c:	01290933          	add	x18,x18,x18
    80001a20:	10090913          	addi	x18,x18,256 # 40010100 <_binary_lab4_test_bin_size+0x3ffefff0>
    80001a24:	f9495683          	lhu	x13,-108(x18)
    80001a28:	0cf6ee93          	ori	x29,x13,207
    80001a2c:	40010fb7          	lui	x31,0x40010
    80001a30:	01ff8fb3          	add	x31,x31,x31
    80001a34:	100f8f93          	addi	x31,x31,256 # 40010100 <_binary_lab4_test_bin_size+0x3ffefff0>
    80001a38:	f3ff85a3          	sb	x31,-213(x31)
    80001a3c:	010dc033          	xor	x0,x27,x16
    80001a40:	415c8eb3          	sub	x29,x25,x21
    80001a44:	40010837          	lui	x16,0x40010
    80001a48:	01080833          	add	x16,x16,x16
    80001a4c:	00e81003          	lh	x0,14(x16) # 4001000e <_binary_lab4_test_bin_size+0x3ffefefe>
    80001a50:	00050ab3          	add	x21,x10,x0
    80001a54:	40010e37          	lui	x28,0x40010
    80001a58:	01ce0e33          	add	x28,x28,x28
    80001a5c:	053e0fa3          	sb	x19,95(x28) # 4001005f <_binary_lab4_test_bin_size+0x3ffeff4f>
    80001a60:	8478c813          	xori	x16,x17,-1977
    80001a64:	01006233          	or	x4,x0,x16
    80001a68:	344663f3          	csrrsi	x7,mip,12
    80001a6c:	40010cb7          	lui	x25,0x40010
    80001a70:	019c8cb3          	add	x25,x25,x25
    80001a74:	100c8c93          	addi	x25,x25,256 # 40010100 <_binary_lab4_test_bin_size+0x3ffefff0>
    80001a78:	fa9c8983          	lb	x19,-87(x25)
    80001a7c:	400106b7          	lui	x13,0x40010
    80001a80:	00d686b3          	add	x13,x13,x13
    80001a84:	0d06eb83          	lwu	x23,208(x13) # 400100d0 <_binary_lab4_test_bin_size+0x3ffeffc0>
    80001a88:	01de8e3b          	addw	x28,x29,x29
    80001a8c:	40010237          	lui	x4,0x40010
    80001a90:	00420233          	add	x4,x4,x4
    80001a94:	0f422903          	lw	x18,244(x4) # 400100f4 <_binary_lab4_test_bin_size+0x3ffeffe4>
    80001a98:	34a64913          	xori	x18,x12,842
    80001a9c:	40e7863b          	subw	x12,x15,x14
    80001aa0:	6e340713          	addi	x14,x8,1763
    80001aa4:	400102b7          	lui	x5,0x40010
    80001aa8:	005282b3          	add	x5,x5,x5
    80001aac:	10028293          	addi	x5,x5,256 # 40010100 <_binary_lab4_test_bin_size+0x3ffefff0>
    80001ab0:	f382b083          	ld	x1,-200(x5)
    80001ab4:	304bd573          	csrrwi	x10,mie,23
    80001ab8:	d814ed13          	ori	x26,x9,-639
    80001abc:	00fe85b3          	add	x11,x29,x15
    80001ac0:	3448fb73          	csrrci	x22,mip,17
    80001ac4:	007672b3          	and	x5,x12,x7
    80001ac8:	40650733          	sub	x14,x10,x6
    80001acc:	40010fb7          	lui	x31,0x40010
    80001ad0:	01ff8fb3          	add	x31,x31,x31
    80001ad4:	027f8c23          	sb	x7,56(x31) # 40010038 <_binary_lab4_test_bin_size+0x3ffeff28>
    80001ad8:	00cc0233          	add	x4,x24,x12
    80001adc:	d8cd6d13          	ori	x26,x26,-628
    80001ae0:	003ffab3          	and	x21,x31,x3
    80001ae4:	2f34099b          	addiw	x19,x8,755
    80001ae8:	40010837          	lui	x16,0x40010
    80001aec:	01080833          	add	x16,x16,x16
    80001af0:	10080813          	addi	x16,x16,256 # 40010100 <_binary_lab4_test_bin_size+0x3ffefff0>
    80001af4:	f7c86603          	lwu	x12,-132(x16)
    80001af8:	01337633          	and	x12,x6,x19
    80001afc:	8d2a8d13          	addi	x26,x21,-1838
    80001b00:	ac240793          	addi	x15,x8,-1342
    80001b04:	3049e073          	csrsi	mie,19
    80001b08:	76546393          	ori	x7,x8,1893
    80001b0c:	0fb2c813          	xori	x16,x5,251
    80001b10:	30505af3          	csrrwi	x21,mtvec,0
    80001b14:	01700bbb          	addw	x23,x0,x23
    80001b18:	400100b7          	lui	x1,0x40010
    80001b1c:	001080b3          	add	x1,x1,x1
    80001b20:	10008093          	addi	x1,x1,256 # 40010100 <_binary_lab4_test_bin_size+0x3ffefff0>
    80001b24:	fe20a423          	sw	x2,-24(x1)
    80001b28:	00116633          	or	x12,x2,x1
    80001b2c:	7ef40893          	addi	x17,x8,2031
    80001b30:	344e5673          	csrrwi	x12,mip,28
    80001b34:	34157af3          	csrrci	x21,mepc,10
    80001b38:	40078f3b          	subw	x30,x15,x0
    80001b3c:	6c3be293          	ori	x5,x23,1731
    80001b40:	0196c5b3          	xor	x11,x13,x25
    80001b44:	d74ae813          	ori	x16,x21,-652
    80001b48:	0143c1b3          	xor	x3,x7,x20
    80001b4c:	400105b7          	lui	x11,0x40010
    80001b50:	00b585b3          	add	x11,x11,x11
    80001b54:	0885b803          	ld	x16,136(x11) # 40010088 <_binary_lab4_test_bin_size+0x3ffeff78>
    80001b58:	00c86533          	or	x10,x16,x12
    80001b5c:	40010437          	lui	x8,0x40010
    80001b60:	00840433          	add	x8,x8,x8
    80001b64:	0e846d03          	lwu	x26,232(x8) # 400100e8 <_binary_lab4_test_bin_size+0x3ffeffd8>
    80001b68:	342b9ef3          	csrrw	x29,mcause,x23
    80001b6c:	40ef0533          	sub	x10,x30,x14
    80001b70:	400101b7          	lui	x3,0x40010
    80001b74:	003181b3          	add	x3,x3,x3
    80001b78:	0e41e483          	lwu	x9,228(x3) # 400100e4 <_binary_lab4_test_bin_size+0x3ffeffd4>
    80001b7c:	304eff73          	csrrci	x30,mie,29
    80001b80:	342bebf3          	csrrsi	x23,mcause,23
    80001b84:	00fd0cbb          	addw	x25,x26,x15
    80001b88:	400100b7          	lui	x1,0x40010
    80001b8c:	001080b3          	add	x1,x1,x1
    80001b90:	0f80a483          	lw	x9,248(x1) # 400100f8 <_binary_lab4_test_bin_size+0x3ffeffe8>
    80001b94:	0029e533          	or	x10,x19,x2
    80001b98:	9ceaf513          	andi	x10,x21,-1586
    80001b9c:	400101b7          	lui	x3,0x40010
    80001ba0:	003181b3          	add	x3,x3,x3
    80001ba4:	0f819823          	sh	x24,240(x3) # 400100f0 <_binary_lab4_test_bin_size+0x3ffeffe0>
    80001ba8:	401d82bb          	subw	x5,x27,x1
    80001bac:	344a1ef3          	csrrw	x29,mip,x20
    80001bb0:	cdd6fa93          	andi	x21,x13,-803
    80001bb4:	40010eb7          	lui	x29,0x40010
    80001bb8:	01de8eb3          	add	x29,x29,x29
    80001bbc:	070e9823          	sh	x16,112(x29) # 40010070 <_binary_lab4_test_bin_size+0x3ffeff60>
    80001bc0:	01c385b3          	add	x11,x7,x28
    80001bc4:	3046e973          	csrrsi	x18,mie,13
    80001bc8:	40010737          	lui	x14,0x40010
    80001bcc:	00e70733          	add	x14,x14,x14
    80001bd0:	10070713          	addi	x14,x14,256 # 40010100 <_binary_lab4_test_bin_size+0x3ffefff0>
    80001bd4:	fb873b83          	ld	x23,-72(x14)
    80001bd8:	305c9df3          	csrrw	x27,mtvec,x25
    80001bdc:	7e387a13          	andi	x20,x16,2019
    80001be0:	00a406b3          	add	x13,x8,x10
    80001be4:	00100cbb          	addw	x25,x0,x1
    80001be8:	531c0813          	addi	x16,x24,1329
    80001bec:	40010a37          	lui	x20,0x40010
    80001bf0:	014a0a33          	add	x20,x20,x20
    80001bf4:	0f4a6f83          	lwu	x31,244(x20) # 400100f4 <_binary_lab4_test_bin_size+0x3ffeffe4>
    80001bf8:	40010a37          	lui	x20,0x40010
    80001bfc:	014a0a33          	add	x20,x20,x20
    80001c00:	016a09a3          	sb	x22,19(x20) # 40010013 <_binary_lab4_test_bin_size+0x3ffeff03>
    80001c04:	400105b7          	lui	x11,0x40010
    80001c08:	00b585b3          	add	x11,x11,x11
    80001c0c:	10058593          	addi	x11,x11,256 # 40010100 <_binary_lab4_test_bin_size+0x3ffefff0>
    80001c10:	ff459083          	lh	x1,-12(x11)
    80001c14:	40010e37          	lui	x28,0x40010
    80001c18:	01ce0e33          	add	x28,x28,x28
    80001c1c:	100e0e13          	addi	x28,x28,256 # 40010100 <_binary_lab4_test_bin_size+0x3ffefff0>
    80001c20:	f1ce2083          	lw	x1,-228(x28)
    80001c24:	0090e933          	or	x18,x1,x9
    80001c28:	41f70eb3          	sub	x29,x14,x31
    80001c2c:	0032eab3          	or	x21,x5,x3
    80001c30:	41620233          	sub	x4,x4,x22
    80001c34:	400106b7          	lui	x13,0x40010
    80001c38:	00d686b3          	add	x13,x13,x13
    80001c3c:	0526cd03          	lbu	x26,82(x13) # 40010052 <_binary_lab4_test_bin_size+0x3ffeff42>
    80001c40:	40010d37          	lui	x26,0x40010
    80001c44:	01ad0d33          	add	x26,x26,x26
    80001c48:	100d0d13          	addi	x26,x26,256 # 40010100 <_binary_lab4_test_bin_size+0x3ffefff0>
    80001c4c:	f73d3823          	sd	x19,-144(x26)
    80001c50:	410482b3          	sub	x5,x9,x16
    80001c54:	40010237          	lui	x4,0x40010
    80001c58:	00420233          	add	x4,x4,x4
    80001c5c:	08823023          	sd	x8,128(x4) # 40010080 <_binary_lab4_test_bin_size+0x3ffeff70>
    80001c60:	304e1273          	csrrw	x4,mie,x28
    80001c64:	40d38ab3          	sub	x21,x7,x13
    80001c68:	0047e3b3          	or	x7,x15,x4
    80001c6c:	341eedf3          	csrrsi	x27,mepc,29
    80001c70:	41b00a3b          	negw	x20,x27
    80001c74:	400105b7          	lui	x11,0x40010
    80001c78:	00b585b3          	add	x11,x11,x11
    80001c7c:	0cc5aa23          	sw	x12,212(x11) # 400100d4 <_binary_lab4_test_bin_size+0x3ffeffc4>
    80001c80:	40010637          	lui	x12,0x40010
    80001c84:	00c60633          	add	x12,x12,x12
    80001c88:	10060613          	addi	x12,x12,256 # 40010100 <_binary_lab4_test_bin_size+0x3ffefff0>
    80001c8c:	f6866803          	lwu	x16,-152(x12)
    80001c90:	400809bb          	subw	x19,x16,x0
    80001c94:	cc7d6593          	ori	x11,x26,-825
    80001c98:	400109b7          	lui	x19,0x40010
    80001c9c:	013989b3          	add	x19,x19,x19
    80001ca0:	05c9e683          	lwu	x13,92(x19) # 4001005c <_binary_lab4_test_bin_size+0x3ffeff4c>
    80001ca4:	bba5eb13          	ori	x22,x11,-1094
    80001ca8:	9c4af113          	andi	x2,x21,-1596
    80001cac:	00d40833          	add	x16,x8,x13
    80001cb0:	3432e4f3          	csrrsi	x9,mtval,5
    80001cb4:	40010e37          	lui	x28,0x40010
    80001cb8:	01ce0e33          	add	x28,x28,x28
    80001cbc:	069e2a23          	sw	x9,116(x28) # 40010074 <_binary_lab4_test_bin_size+0x3ffeff64>
    80001cc0:	40010e37          	lui	x28,0x40010
    80001cc4:	01ce0e33          	add	x28,x28,x28
    80001cc8:	04ce2c83          	lw	x25,76(x28) # 4001004c <_binary_lab4_test_bin_size+0x3ffeff3c>
    80001ccc:	019b8abb          	addw	x21,x23,x25
    80001cd0:	400103b7          	lui	x7,0x40010
    80001cd4:	007383b3          	add	x7,x7,x7
    80001cd8:	0043a703          	lw	x14,4(x7) # 40010004 <_binary_lab4_test_bin_size+0x3ffefef4>
    80001cdc:	41670bb3          	sub	x23,x14,x22
    80001ce0:	404b8e33          	sub	x28,x23,x4
    80001ce4:	304c56f3          	csrrwi	x13,mie,24
    80001ce8:	83b9f713          	andi	x14,x19,-1989
    80001cec:	306afc13          	andi	x24,x21,774
    80001cf0:	400108b7          	lui	x17,0x40010
    80001cf4:	011888b3          	add	x17,x17,x17
    80001cf8:	10088893          	addi	x17,x17,256 # 40010100 <_binary_lab4_test_bin_size+0x3ffefff0>
    80001cfc:	f998c383          	lbu	x7,-103(x17)
    80001d00:	40010e37          	lui	x28,0x40010
    80001d04:	01ce0e33          	add	x28,x28,x28
    80001d08:	100e0e13          	addi	x28,x28,256 # 40010100 <_binary_lab4_test_bin_size+0x3ffefff0>
    80001d0c:	f5be2023          	sw	x27,-192(x28)
    80001d10:	492eee93          	ori	x29,x29,1170
    80001d14:	34411573          	csrrw	x10,mip,x2
    80001d18:	40010b37          	lui	x22,0x40010
    80001d1c:	016b0b33          	add	x22,x22,x22
    80001d20:	0e0b0803          	lb	x16,224(x22) # 400100e0 <_binary_lab4_test_bin_size+0x3ffeffd0>
    80001d24:	009862b3          	or	x5,x16,x9
    80001d28:	40010cb7          	lui	x25,0x40010
    80001d2c:	019c8cb3          	add	x25,x25,x25
    80001d30:	100c8c93          	addi	x25,x25,256 # 40010100 <_binary_lab4_test_bin_size+0x3ffefff0>
    80001d34:	fe0ce403          	lwu	x8,-32(x25)
    80001d38:	bf350c1b          	addiw	x24,x10,-1037
    80001d3c:	34357a73          	csrrci	x20,mtval,10
    80001d40:	40010937          	lui	x18,0x40010
    80001d44:	01290933          	add	x18,x18,x18
    80001d48:	0cb93823          	sd	x11,208(x18) # 400100d0 <_binary_lab4_test_bin_size+0x3ffeffc0>
    80001d4c:	a44fe993          	ori	x19,x31,-1468
    80001d50:	01900ab3          	add	x21,x0,x25
    80001d54:	400109b7          	lui	x19,0x40010
    80001d58:	013989b3          	add	x19,x19,x19
    80001d5c:	0d499d83          	lh	x27,212(x19) # 400100d4 <_binary_lab4_test_bin_size+0x3ffeffc4>
    80001d60:	400107b7          	lui	x15,0x40010
    80001d64:	00f787b3          	add	x15,x15,x15
    80001d68:	10078793          	addi	x15,x15,256 # 40010100 <_binary_lab4_test_bin_size+0x3ffefff0>
    80001d6c:	fc67de03          	lhu	x28,-58(x15)
    80001d70:	01c67fb3          	and	x31,x12,x28
    80001d74:	400106b7          	lui	x13,0x40010
    80001d78:	00d686b3          	add	x13,x13,x13
    80001d7c:	10068693          	addi	x13,x13,256 # 40010100 <_binary_lab4_test_bin_size+0x3ffefff0>
    80001d80:	f746a223          	sw	x20,-156(x13)
    80001d84:	4e30ff93          	andi	x31,x1,1251
    80001d88:	400103b7          	lui	x7,0x40010
    80001d8c:	007383b3          	add	x7,x7,x7
    80001d90:	10038393          	addi	x7,x7,256 # 40010100 <_binary_lab4_test_bin_size+0x3ffefff0>
    80001d94:	f253b023          	sd	x5,-224(x7)
    80001d98:	e2766113          	ori	x2,x12,-473
    80001d9c:	40010d37          	lui	x26,0x40010
    80001da0:	01ad0d33          	add	x26,x26,x26
    80001da4:	065d1023          	sh	x5,96(x26) # 40010060 <_binary_lab4_test_bin_size+0x3ffeff50>
    80001da8:	7c56e713          	ori	x14,x13,1989
    80001dac:	400105b7          	lui	x11,0x40010
    80001db0:	00b585b3          	add	x11,x11,x11
    80001db4:	10058593          	addi	x11,x11,256 # 40010100 <_binary_lab4_test_bin_size+0x3ffefff0>
    80001db8:	f2c5e703          	lwu	x14,-212(x11)
    80001dbc:	00b3073b          	addw	x14,x6,x11
    80001dc0:	40010eb7          	lui	x29,0x40010
    80001dc4:	01de8eb3          	add	x29,x29,x29
    80001dc8:	100e8e93          	addi	x29,x29,256 # 40010100 <_binary_lab4_test_bin_size+0x3ffefff0>
    80001dcc:	fb0ea203          	lw	x4,-80(x29)
    80001dd0:	f938011b          	addiw	x2,x16,-109
    80001dd4:	40010737          	lui	x14,0x40010
    80001dd8:	00e70733          	add	x14,x14,x14
    80001ddc:	00371823          	sh	x3,16(x14) # 40010010 <_binary_lab4_test_bin_size+0x3ffeff00>
    80001de0:	00fd7333          	and	x6,x26,x15
    80001de4:	40010137          	lui	x2,0x40010
    80001de8:	00210133          	add	x2,x2,x2
    80001dec:	10010113          	addi	x2,x2,256 # 40010100 <_binary_lab4_test_bin_size+0x3ffefff0>
    80001df0:	fd714d83          	lbu	x27,-41(x2)
    80001df4:	40ad87b3          	sub	x15,x27,x10
    80001df8:	2902f013          	andi	x0,x5,656
    80001dfc:	00f18abb          	addw	x21,x3,x15
    80001e00:	40010337          	lui	x6,0x40010
    80001e04:	00630333          	add	x6,x6,x6
    80001e08:	01836183          	lwu	x3,24(x6) # 40010018 <_binary_lab4_test_bin_size+0x3ffeff08>
    80001e0c:	00460933          	add	x18,x12,x4
    80001e10:	d5c14e93          	xori	x29,x2,-676
    80001e14:	344ae173          	csrrsi	x2,mip,21
    80001e18:	30407573          	csrrci	x10,mie,0
    80001e1c:	012f7bb3          	and	x23,x30,x18
    80001e20:	40e18833          	sub	x16,x3,x14
    80001e24:	0063cfb3          	xor	x31,x7,x6
    80001e28:	00e24ab3          	xor	x21,x4,x14
    80001e2c:	40010cb7          	lui	x25,0x40010
    80001e30:	019c8cb3          	add	x25,x25,x25
    80001e34:	100c8c93          	addi	x25,x25,256 # 40010100 <_binary_lab4_test_bin_size+0x3ffefff0>
    80001e38:	f4fcbc23          	sd	x15,-168(x25)
    80001e3c:	0546ee93          	ori	x29,x13,84
    80001e40:	40010fb7          	lui	x31,0x40010
    80001e44:	01ff8fb3          	add	x31,x31,x31
    80001e48:	100f8f93          	addi	x31,x31,256 # 40010100 <_binary_lab4_test_bin_size+0x3ffefff0>
    80001e4c:	f1cfa603          	lw	x12,-228(x31)
    80001e50:	09b8f613          	andi	x12,x17,155
    80001e54:	18488193          	addi	x3,x17,388
    80001e58:	400103b7          	lui	x7,0x40010
    80001e5c:	007383b3          	add	x7,x7,x7
    80001e60:	0ba3d703          	lhu	x14,186(x7) # 400100ba <_binary_lab4_test_bin_size+0x3ffeffaa>
    80001e64:	4187013b          	subw	x2,x14,x24
    80001e68:	3413fd73          	csrrci	x26,mepc,7
    80001e6c:	40010bb7          	lui	x23,0x40010
    80001e70:	017b8bb3          	add	x23,x23,x23
    80001e74:	100b8b93          	addi	x23,x23,256 # 40010100 <_binary_lab4_test_bin_size+0x3ffefff0>
    80001e78:	f98bec03          	lwu	x24,-104(x23)
    80001e7c:	01e90c33          	add	x24,x18,x30
    80001e80:	400100b7          	lui	x1,0x40010
    80001e84:	001080b3          	add	x1,x1,x1
    80001e88:	10008093          	addi	x1,x1,256 # 40010100 <_binary_lab4_test_bin_size+0x3ffefff0>
    80001e8c:	f950aa23          	sw	x21,-108(x1)
    80001e90:	f16d8193          	addi	x3,x27,-234
    80001e94:	f85ec813          	xori	x16,x29,-123
    80001e98:	b55c021b          	addiw	x4,x24,-1195
    80001e9c:	41678cbb          	subw	x25,x15,x22
    80001ea0:	405586b3          	sub	x13,x11,x5
    80001ea4:	4127063b          	subw	x12,x14,x18
    80001ea8:	3a20fe13          	andi	x28,x1,930
    80001eac:	400105b7          	lui	x11,0x40010
    80001eb0:	00b585b3          	add	x11,x11,x11
    80001eb4:	10058593          	addi	x11,x11,256 # 40010100 <_binary_lab4_test_bin_size+0x3ffefff0>
    80001eb8:	f0c5ce03          	lbu	x28,-244(x11)
    80001ebc:	400108b7          	lui	x17,0x40010
    80001ec0:	011888b3          	add	x17,x17,x17
    80001ec4:	07089c03          	lh	x24,112(x17) # 40010070 <_binary_lab4_test_bin_size+0x3ffeff60>
    80001ec8:	00a28bb3          	add	x23,x5,x10
    80001ecc:	c44e7993          	andi	x19,x28,-956
    80001ed0:	6143e593          	ori	x11,x7,1556
    80001ed4:	400105b7          	lui	x11,0x40010
    80001ed8:	00b585b3          	add	x11,x11,x11
    80001edc:	0785bb83          	ld	x23,120(x11) # 40010078 <_binary_lab4_test_bin_size+0x3ffeff68>
    80001ee0:	011b8cb3          	add	x25,x23,x17
    80001ee4:	40010eb7          	lui	x29,0x40010
    80001ee8:	01de8eb3          	add	x29,x29,x29
    80001eec:	100e8e93          	addi	x29,x29,256 # 40010100 <_binary_lab4_test_bin_size+0x3ffefff0>
    80001ef0:	fbde8523          	sb	x29,-86(x29)
    80001ef4:	007e0dbb          	addw	x27,x28,x7
    80001ef8:	40010eb7          	lui	x29,0x40010
    80001efc:	01de8eb3          	add	x29,x29,x29
    80001f00:	100e8e93          	addi	x29,x29,256 # 40010100 <_binary_lab4_test_bin_size+0x3ffefff0>
    80001f04:	febe8f03          	lb	x30,-21(x29)
    80001f08:	01f5ed33          	or	x26,x11,x31
    80001f0c:	40010f37          	lui	x30,0x40010
    80001f10:	01ef0f33          	add	x30,x30,x30
    80001f14:	100f0f13          	addi	x30,x30,256 # 40010100 <_binary_lab4_test_bin_size+0x3ffefff0>
    80001f18:	fd7f1a23          	sh	x23,-44(x30)
    80001f1c:	40010337          	lui	x6,0x40010
    80001f20:	00630333          	add	x6,x6,x6
    80001f24:	10030313          	addi	x6,x6,256 # 40010100 <_binary_lab4_test_bin_size+0x3ffefff0>
    80001f28:	f3632823          	sw	x22,-208(x6)
    80001f2c:	b9f1ed13          	ori	x26,x3,-1121
    80001f30:	cc2f7893          	andi	x17,x30,-830
    80001f34:	40010737          	lui	x14,0x40010
    80001f38:	00e70733          	add	x14,x14,x14
    80001f3c:	03570983          	lb	x19,53(x14) # 40010035 <_binary_lab4_test_bin_size+0x3ffeff25>
    80001f40:	014d0a33          	add	x20,x26,x20
    80001f44:	004d0b3b          	addw	x22,x26,x4
    80001f48:	400107b7          	lui	x15,0x40010
    80001f4c:	00f787b3          	add	x15,x15,x15
    80001f50:	10078793          	addi	x15,x15,256 # 40010100 <_binary_lab4_test_bin_size+0x3ffefff0>
    80001f54:	f5079623          	sh	x16,-180(x15)
    80001f58:	012ee833          	or	x16,x29,x18
    80001f5c:	0033023b          	addw	x4,x6,x3
    80001f60:	ffdcfc13          	andi	x24,x25,-3
    80001f64:	400105b7          	lui	x11,0x40010
    80001f68:	00b585b3          	add	x11,x11,x11
    80001f6c:	10058593          	addi	x11,x11,256 # 40010100 <_binary_lab4_test_bin_size+0x3ffefff0>
    80001f70:	fcc58503          	lb	x10,-52(x11)
    80001f74:	41054493          	xori	x9,x10,1040
    80001f78:	400109b7          	lui	x19,0x40010
    80001f7c:	013989b3          	add	x19,x19,x19
    80001f80:	10098993          	addi	x19,x19,256 # 40010100 <_binary_lab4_test_bin_size+0x3ffefff0>
    80001f84:	f6698283          	lb	x5,-154(x19)
    80001f88:	400109b7          	lui	x19,0x40010
    80001f8c:	013989b3          	add	x19,x19,x19
    80001f90:	0589d783          	lhu	x15,88(x19) # 40010058 <_binary_lab4_test_bin_size+0x3ffeff48>
    80001f94:	343b5cf3          	csrrwi	x25,mtval,22
    80001f98:	019e4db3          	xor	x27,x28,x25
    80001f9c:	008acd33          	xor	x26,x21,x8
    80001fa0:	58888f13          	addi	x30,x17,1416
    80001fa4:	b477c813          	xori	x16,x15,-1209
    80001fa8:	3041e173          	csrrsi	x2,mie,3
    80001fac:	40010c37          	lui	x24,0x40010
    80001fb0:	018c0c33          	add	x24,x24,x24
    80001fb4:	0cac03a3          	sb	x10,199(x24) # 400100c7 <_binary_lab4_test_bin_size+0x3ffeffb7>
    80001fb8:	40010c37          	lui	x24,0x40010
    80001fbc:	018c0c33          	add	x24,x24,x24
    80001fc0:	100c0c13          	addi	x24,x24,256 # 40010100 <_binary_lab4_test_bin_size+0x3ffefff0>
    80001fc4:	f0ec4c03          	lbu	x24,-242(x24)
    80001fc8:	336d8f93          	addi	x31,x27,822
    80001fcc:	40ef8e3b          	subw	x28,x31,x14
    80001fd0:	40010eb7          	lui	x29,0x40010
    80001fd4:	01de8eb3          	add	x29,x29,x29
    80001fd8:	0eae9923          	sh	x10,242(x29) # 400100f2 <_binary_lab4_test_bin_size+0x3ffeffe2>
    80001fdc:	400101b7          	lui	x3,0x40010
    80001fe0:	003181b3          	add	x3,x3,x3
    80001fe4:	10018193          	addi	x3,x3,256 # 40010100 <_binary_lab4_test_bin_size+0x3ffefff0>
    80001fe8:	fc419683          	lh	x13,-60(x3)
    80001fec:	b65a4413          	xori	x8,x20,-1179
    80001ff0:	f83f6d93          	ori	x27,x30,-125
    80001ff4:	00d60333          	add	x6,x12,x13
    80001ff8:	40010637          	lui	x12,0x40010
    80001ffc:	00c60633          	add	x12,x12,x12
    80002000:	10060613          	addi	x12,x12,256 # 40010100 <_binary_lab4_test_bin_size+0x3ffefff0>
    80002004:	f5665b03          	lhu	x22,-170(x12)
    80002008:	2f3e081b          	addiw	x16,x28,755
    8000200c:	40010cb7          	lui	x25,0x40010
    80002010:	019c8cb3          	add	x25,x25,x25
    80002014:	100c8c93          	addi	x25,x25,256 # 40010100 <_binary_lab4_test_bin_size+0x3ffefff0>
    80002018:	f0bca823          	sw	x11,-240(x25)
    8000201c:	40010b37          	lui	x22,0x40010
    80002020:	016b0b33          	add	x22,x22,x22
    80002024:	08bb3c23          	sd	x11,152(x22) # 40010098 <_binary_lab4_test_bin_size+0x3ffeff88>
    80002028:	400102b7          	lui	x5,0x40010
    8000202c:	005282b3          	add	x5,x5,x5
    80002030:	0a42a583          	lw	x11,164(x5) # 400100a4 <_binary_lab4_test_bin_size+0x3ffeff94>
    80002034:	40b70c33          	sub	x24,x14,x11
    80002038:	006e02b3          	add	x5,x28,x6
    8000203c:	400100b7          	lui	x1,0x40010
    80002040:	001080b3          	add	x1,x1,x1
    80002044:	10008093          	addi	x1,x1,256 # 40010100 <_binary_lab4_test_bin_size+0x3ffefff0>
    80002048:	f9e0c303          	lbu	x6,-98(x1)
    8000204c:	73a37313          	andi	x6,x6,1850
    80002050:	408f05b3          	sub	x11,x30,x8
    80002054:	40010837          	lui	x16,0x40010
    80002058:	01080833          	add	x16,x16,x16
    8000205c:	07e81c23          	sh	x30,120(x16) # 40010078 <_binary_lab4_test_bin_size+0x3ffeff68>
    80002060:	400100b7          	lui	x1,0x40010
    80002064:	001080b3          	add	x1,x1,x1
    80002068:	0120d903          	lhu	x18,18(x1) # 40010012 <_binary_lab4_test_bin_size+0x3ffeff02>
    8000206c:	38296913          	ori	x18,x18,898
    80002070:	0169c9b3          	xor	x19,x19,x22
    80002074:	b1cd7d93          	andi	x27,x26,-1252
    80002078:	2e566c93          	ori	x25,x12,741
    8000207c:	e8cec313          	xori	x6,x29,-372
    80002080:	004dfab3          	and	x21,x27,x4
    80002084:	01f7ef33          	or	x30,x15,x31
    80002088:	400101b7          	lui	x3,0x40010
    8000208c:	003181b3          	add	x3,x3,x3
    80002090:	0491b423          	sd	x9,72(x3) # 40010048 <_binary_lab4_test_bin_size+0x3ffeff38>
    80002094:	40010e37          	lui	x28,0x40010
    80002098:	01ce0e33          	add	x28,x28,x28
    8000209c:	100e0e13          	addi	x28,x28,256 # 40010100 <_binary_lab4_test_bin_size+0x3ffefff0>
    800020a0:	f96e3c23          	sd	x22,-104(x28)
    800020a4:	785a839b          	addiw	x7,x21,1925
    800020a8:	3413d4f3          	csrrwi	x9,mepc,7
    800020ac:	41f5073b          	subw	x14,x10,x31
    800020b0:	72e16213          	ori	x4,x2,1838
    800020b4:	b2e4f713          	andi	x14,x9,-1234
    800020b8:	40010337          	lui	x6,0x40010
    800020bc:	00630333          	add	x6,x6,x6
    800020c0:	0d435d03          	lhu	x26,212(x6) # 400100d4 <_binary_lab4_test_bin_size+0x3ffeffc4>
    800020c4:	c39d4d13          	xori	x26,x26,-967
    800020c8:	400109b7          	lui	x19,0x40010
    800020cc:	013989b3          	add	x19,x19,x19
    800020d0:	10098993          	addi	x19,x19,256 # 40010100 <_binary_lab4_test_bin_size+0x3ffefff0>
    800020d4:	f089ec03          	lwu	x24,-248(x19)
    800020d8:	31c94c13          	xori	x24,x18,796
    800020dc:	342a96f3          	csrrw	x13,mcause,x21
    800020e0:	8a748993          	addi	x19,x9,-1881
    800020e4:	344b1873          	csrrw	x16,mip,x22
    800020e8:	400103b7          	lui	x7,0x40010
    800020ec:	007383b3          	add	x7,x7,x7
    800020f0:	10038393          	addi	x7,x7,256 # 40010100 <_binary_lab4_test_bin_size+0x3ffefff0>
    800020f4:	ff03bd03          	ld	x26,-16(x7)
    800020f8:	ed226413          	ori	x8,x4,-302
    800020fc:	01d27733          	and	x14,x4,x29
    80002100:	40010b37          	lui	x22,0x40010
    80002104:	016b0b33          	add	x22,x22,x22
    80002108:	100b0b13          	addi	x22,x22,256 # 40010100 <_binary_lab4_test_bin_size+0x3ffefff0>
    8000210c:	fd1b1723          	sh	x17,-50(x22)
    80002110:	400100b7          	lui	x1,0x40010
    80002114:	001080b3          	add	x1,x1,x1
    80002118:	1030a023          	sw	x3,256(x1) # 40010100 <_binary_lab4_test_bin_size+0x3ffefff0>
    8000211c:	01426933          	or	x18,x4,x20
    80002120:	400100b7          	lui	x1,0x40010
    80002124:	001080b3          	add	x1,x1,x1
    80002128:	0780bd03          	ld	x26,120(x1) # 40010078 <_binary_lab4_test_bin_size+0x3ffeff68>
    8000212c:	91474c93          	xori	x25,x14,-1772
    80002130:	342a58f3          	csrrwi	x17,mcause,20
    80002134:	400105b7          	lui	x11,0x40010
    80002138:	00b585b3          	add	x11,x11,x11
    8000213c:	0c559a23          	sh	x5,212(x11) # 400100d4 <_binary_lab4_test_bin_size+0x3ffeffc4>
    80002140:	400104b7          	lui	x9,0x40010
    80002144:	009484b3          	add	x9,x9,x9
    80002148:	10048493          	addi	x9,x9,256 # 40010100 <_binary_lab4_test_bin_size+0x3ffefff0>
    8000214c:	fa44a183          	lw	x3,-92(x9)
    80002150:	3417d773          	csrrwi	x14,mepc,15
    80002154:	006ce233          	or	x4,x25,x6
    80002158:	00b4e033          	or	x0,x9,x11
    8000215c:	304299f3          	csrrw	x19,mie,x5
    80002160:	343f6ff3          	csrrsi	x31,mtval,30
    80002164:	017e6c33          	or	x24,x28,x23
    80002168:	400107b7          	lui	x15,0x40010
    8000216c:	00f787b3          	add	x15,x15,x15
    80002170:	0a37b023          	sd	x3,160(x15) # 400100a0 <_binary_lab4_test_bin_size+0x3ffeff90>
    80002174:	40010537          	lui	x10,0x40010
    80002178:	00a50533          	add	x10,x10,x10
    8000217c:	00851083          	lh	x1,8(x10) # 40010008 <_binary_lab4_test_bin_size+0x3ffefef8>
    80002180:	01008e3b          	addw	x28,x1,x16
    80002184:	40010c37          	lui	x24,0x40010
    80002188:	018c0c33          	add	x24,x24,x24
    8000218c:	074c0403          	lb	x8,116(x24) # 40010074 <_binary_lab4_test_bin_size+0x3ffeff64>
    80002190:	004c8433          	add	x8,x25,x4
    80002194:	40010337          	lui	x6,0x40010
    80002198:	00630333          	add	x6,x6,x6
    8000219c:	0e133c23          	sd	x1,248(x6) # 400100f8 <_binary_lab4_test_bin_size+0x3ffeffe8>
    800021a0:	00984033          	xor	x0,x16,x9
    800021a4:	40010db7          	lui	x27,0x40010
    800021a8:	01bd8db3          	add	x27,x27,x27
    800021ac:	100d8d93          	addi	x27,x27,256 # 40010100 <_binary_lab4_test_bin_size+0x3ffefff0>
    800021b0:	fc5d8703          	lb	x14,-59(x27)
    800021b4:	4027073b          	subw	x14,x14,x2
    800021b8:	400109b7          	lui	x19,0x40010
    800021bc:	013989b3          	add	x19,x19,x19
    800021c0:	10098993          	addi	x19,x19,256 # 40010100 <_binary_lab4_test_bin_size+0x3ffefff0>
    800021c4:	f059c403          	lbu	x8,-251(x19)
    800021c8:	00d4003b          	addw	x0,x8,x13
    800021cc:	00588dbb          	addw	x27,x17,x5
    800021d0:	40010cb7          	lui	x25,0x40010
    800021d4:	019c8cb3          	add	x25,x25,x25
    800021d8:	0f0c9083          	lh	x1,240(x25) # 400100f0 <_binary_lab4_test_bin_size+0x3ffeffe0>
    800021dc:	4d488e9b          	addiw	x29,x17,1236
    800021e0:	40010db7          	lui	x27,0x40010
    800021e4:	01bd8db3          	add	x27,x27,x27
    800021e8:	100d8d93          	addi	x27,x27,256 # 40010100 <_binary_lab4_test_bin_size+0x3ffefff0>
    800021ec:	f0cda603          	lw	x12,-244(x27)
    800021f0:	00024633          	xor	x12,x4,x0
    800021f4:	400106b7          	lui	x13,0x40010
    800021f8:	00d686b3          	add	x13,x13,x13
    800021fc:	10068693          	addi	x13,x13,256 # 40010100 <_binary_lab4_test_bin_size+0x3ffefff0>
    80002200:	f8169723          	sh	x1,-114(x13)
    80002204:	f3154093          	xori	x1,x10,-207
    80002208:	34399173          	csrrw	x2,mtval,x19
    8000220c:	40010fb7          	lui	x31,0x40010
    80002210:	01ff8fb3          	add	x31,x31,x31
    80002214:	0defdf03          	lhu	x30,222(x31) # 400100de <_binary_lab4_test_bin_size+0x3ffeffce>
    80002218:	8fd18e1b          	addiw	x28,x3,-1795
    8000221c:	40010bb7          	lui	x23,0x40010
    80002220:	017b8bb3          	add	x23,x23,x23
    80002224:	0e4bb423          	sd	x4,232(x23) # 400100e8 <_binary_lab4_test_bin_size+0x3ffeffd8>
    80002228:	40010d37          	lui	x26,0x40010
    8000222c:	01ad0d33          	add	x26,x26,x26
    80002230:	08cd5e03          	lhu	x28,140(x26) # 4001008c <_binary_lab4_test_bin_size+0x3ffeff7c>
    80002234:	005ffd33          	and	x26,x31,x5
    80002238:	304473f3          	csrrci	x7,mie,8
    8000223c:	63d90513          	addi	x10,x18,1597
    80002240:	41b40a33          	sub	x20,x8,x27
    80002244:	011b4cb3          	xor	x25,x22,x17
    80002248:	13846b93          	ori	x23,x8,312
    8000224c:	400109b7          	lui	x19,0x40010
    80002250:	013989b3          	add	x19,x19,x19
    80002254:	10098993          	addi	x19,x19,256 # 40010100 <_binary_lab4_test_bin_size+0x3ffefff0>
    80002258:	fde9c603          	lbu	x12,-34(x19)
    8000225c:	41460333          	sub	x6,x12,x20
    80002260:	40010637          	lui	x12,0x40010
    80002264:	00c60633          	add	x12,x12,x12
    80002268:	10060613          	addi	x12,x12,256 # 40010100 <_binary_lab4_test_bin_size+0x3ffefff0>
    8000226c:	fb661503          	lh	x10,-74(x12)
    80002270:	019df533          	and	x10,x27,x25
    80002274:	408305bb          	subw	x11,x6,x8
    80002278:	400102b7          	lui	x5,0x40010
    8000227c:	005282b3          	add	x5,x5,x5
    80002280:	0a92c603          	lbu	x12,169(x5) # 400100a9 <_binary_lab4_test_bin_size+0x3ffeff99>
    80002284:	01de7633          	and	x12,x28,x29
    80002288:	40010db7          	lui	x27,0x40010
    8000228c:	01bd8db3          	add	x27,x27,x27
    80002290:	100d8d93          	addi	x27,x27,256 # 40010100 <_binary_lab4_test_bin_size+0x3ffefff0>
    80002294:	f50da503          	lw	x10,-176(x27)
    80002298:	40010537          	lui	x10,0x40010
    8000229c:	00a50533          	add	x10,x10,x10
    800022a0:	10050513          	addi	x10,x10,256 # 40010100 <_binary_lab4_test_bin_size+0x3ffefff0>
    800022a4:	fcb54283          	lbu	x5,-53(x10)
    800022a8:	402f82bb          	subw	x5,x31,x2
    800022ac:	34285073          	csrwi	mcause,16
    800022b0:	fbdee213          	ori	x4,x29,-67
    800022b4:	3050e173          	csrrsi	x2,mtvec,1
    800022b8:	0022813b          	addw	x2,x5,x2
    800022bc:	305010f3          	csrrw	x1,mtvec,x0
    800022c0:	400107b7          	lui	x15,0x40010
    800022c4:	00f787b3          	add	x15,x15,x15
    800022c8:	0c27d803          	lhu	x16,194(x15) # 400100c2 <_binary_lab4_test_bin_size+0x3ffeffb2>
    800022cc:	400109b7          	lui	x19,0x40010
    800022d0:	013989b3          	add	x19,x19,x19
    800022d4:	0789bf03          	ld	x30,120(x19) # 40010078 <_binary_lab4_test_bin_size+0x3ffeff68>
    800022d8:	2410fe93          	andi	x29,x1,577
    800022dc:	f4957813          	andi	x16,x10,-183
    800022e0:	407b8ab3          	sub	x21,x23,x7
    800022e4:	6878879b          	addiw	x15,x17,1671
    800022e8:	000e77b3          	and	x15,x28,x0
    800022ec:	40010337          	lui	x6,0x40010
    800022f0:	00630333          	add	x6,x6,x6
    800022f4:	10030313          	addi	x6,x6,256 # 40010100 <_binary_lab4_test_bin_size+0x3ffefff0>
    800022f8:	f0933423          	sd	x9,-248(x6)
    800022fc:	40010e37          	lui	x28,0x40010
    80002300:	01ce0e33          	add	x28,x28,x28
    80002304:	050e1f23          	sh	x16,94(x28) # 4001005e <_binary_lab4_test_bin_size+0x3ffeff4e>
    80002308:	d0f7c513          	xori	x10,x15,-753
    8000230c:	014c0c3b          	addw	x24,x24,x20
    80002310:	342362f3          	csrrsi	x5,mcause,6
    80002314:	002e8633          	add	x12,x29,x2
    80002318:	40010db7          	lui	x27,0x40010
    8000231c:	01bd8db3          	add	x27,x27,x27
    80002320:	078d9983          	lh	x19,120(x27) # 40010078 <_binary_lab4_test_bin_size+0x3ffeff68>
    80002324:	40a983b3          	sub	x7,x19,x10
    80002328:	40010c37          	lui	x24,0x40010
    8000232c:	018c0c33          	add	x24,x24,x24
    80002330:	100c0c13          	addi	x24,x24,256 # 40010100 <_binary_lab4_test_bin_size+0x3ffefff0>
    80002334:	fc1c2823          	sw	x1,-48(x24)
    80002338:	40010fb7          	lui	x31,0x40010
    8000233c:	01ff8fb3          	add	x31,x31,x31
    80002340:	100f8f93          	addi	x31,x31,256 # 40010100 <_binary_lab4_test_bin_size+0x3ffefff0>
    80002344:	f8cfb823          	sd	x12,-112(x31)
    80002348:	ca500c13          	li	x24,-859
    8000234c:	017d05b3          	add	x11,x26,x23
    80002350:	01968ab3          	add	x21,x13,x25
    80002354:	400103b7          	lui	x7,0x40010
    80002358:	007383b3          	add	x7,x7,x7
    8000235c:	10038393          	addi	x7,x7,256 # 40010100 <_binary_lab4_test_bin_size+0x3ffefff0>
    80002360:	f0e38a83          	lb	x21,-242(x7)
    80002364:	189a8913          	addi	x18,x21,393
    80002368:	343deb73          	csrrsi	x22,mtval,27
    8000236c:	fbdaf193          	andi	x3,x21,-67
    80002370:	9acde193          	ori	x3,x27,-1620
    80002374:	400102b7          	lui	x5,0x40010
    80002378:	005282b3          	add	x5,x5,x5
    8000237c:	0cd2b423          	sd	x13,200(x5) # 400100c8 <_binary_lab4_test_bin_size+0x3ffeffb8>
    80002380:	00170cbb          	addw	x25,x14,x1
    80002384:	56038313          	addi	x6,x7,1376
    80002388:	40010a37          	lui	x20,0x40010
    8000238c:	014a0a33          	add	x20,x20,x20
    80002390:	036a5d03          	lhu	x26,54(x20) # 40010036 <_binary_lab4_test_bin_size+0x3ffeff26>
    80002394:	0177e5b3          	or	x11,x15,x23
    80002398:	40010337          	lui	x6,0x40010
    8000239c:	00630333          	add	x6,x6,x6
    800023a0:	00c32703          	lw	x14,12(x6) # 4001000c <_binary_lab4_test_bin_size+0x3ffefefc>
    800023a4:	30f47213          	andi	x4,x8,783
    800023a8:	40010237          	lui	x4,0x40010
    800023ac:	00420233          	add	x4,x4,x4
    800023b0:	10020213          	addi	x4,x4,256 # 40010100 <_binary_lab4_test_bin_size+0x3ffefff0>
    800023b4:	fa025a83          	lhu	x21,-96(x4) # ffffffffffffffa0 <_binary_lab4_test_bin_end+0xffffffff7ffdfe90>
    800023b8:	9f9a8a9b          	addiw	x21,x21,-1543
    800023bc:	39150293          	addi	x5,x10,913
    800023c0:	400107b7          	lui	x15,0x40010
    800023c4:	00f787b3          	add	x15,x15,x15
    800023c8:	0a87b903          	ld	x18,168(x15) # 400100a8 <_binary_lab4_test_bin_size+0x3ffeff98>
    800023cc:	66110b13          	addi	x22,x2,1633
    800023d0:	01bb4fb3          	xor	x31,x22,x27
    800023d4:	4a588d1b          	addiw	x26,x17,1189
    800023d8:	00d94bb3          	xor	x23,x18,x13
    800023dc:	40010f37          	lui	x30,0x40010
    800023e0:	01ef0f33          	add	x30,x30,x30
    800023e4:	0bcf1803          	lh	x16,188(x30) # 400100bc <_binary_lab4_test_bin_size+0x3ffeffac>
    800023e8:	67487113          	andi	x2,x16,1652
    800023ec:	40010db7          	lui	x27,0x40010
    800023f0:	01bd8db3          	add	x27,x27,x27
    800023f4:	100d8d93          	addi	x27,x27,256 # 40010100 <_binary_lab4_test_bin_size+0x3ffefff0>
    800023f8:	fc4da623          	sw	x4,-52(x27)
    800023fc:	400109b7          	lui	x19,0x40010
    80002400:	013989b3          	add	x19,x19,x19
    80002404:	0d899983          	lh	x19,216(x19) # 400100d8 <_binary_lab4_test_bin_size+0x3ffeffc8>
    80002408:	013084b3          	add	x9,x1,x19
    8000240c:	34466073          	csrsi	mip,12
    80002410:	1b31cd93          	xori	x27,x3,435
    80002414:	40010137          	lui	x2,0x40010
    80002418:	00210133          	add	x2,x2,x2
    8000241c:	07713023          	sd	x23,96(x2) # 40010060 <_binary_lab4_test_bin_size+0x3ffeff50>
    80002420:	40010937          	lui	x18,0x40010
    80002424:	01290933          	add	x18,x18,x18
    80002428:	05496283          	lwu	x5,84(x18) # 40010054 <_binary_lab4_test_bin_size+0x3ffeff44>
    8000242c:	7012e313          	ori	x6,x5,1793
    80002430:	01a77db3          	and	x27,x14,x26
    80002434:	41f08a3b          	subw	x20,x1,x31
    80002438:	40010e37          	lui	x28,0x40010
    8000243c:	01ce0e33          	add	x28,x28,x28
    80002440:	100e0e13          	addi	x28,x28,256 # 40010100 <_binary_lab4_test_bin_size+0x3ffefff0>
    80002444:	f88e3403          	ld	x8,-120(x28)
    80002448:	4a558493          	addi	x9,x11,1189
    8000244c:	40010ab7          	lui	x21,0x40010
    80002450:	015a8ab3          	add	x21,x21,x21
    80002454:	008a9c23          	sh	x8,24(x21) # 40010018 <_binary_lab4_test_bin_size+0x3ffeff08>
    80002458:	3443dbf3          	csrrwi	x23,mip,7
    8000245c:	008ac833          	xor	x16,x21,x8
    80002460:	400103b7          	lui	x7,0x40010
    80002464:	007383b3          	add	x7,x7,x7
    80002468:	0483b103          	ld	x2,72(x7) # 40010048 <_binary_lab4_test_bin_size+0x3ffeff38>
    8000246c:	40110033          	sub	x0,x2,x1
    80002470:	40010bb7          	lui	x23,0x40010
    80002474:	017b8bb3          	add	x23,x23,x23
    80002478:	090b8223          	sb	x16,132(x23) # 40010084 <_binary_lab4_test_bin_size+0x3ffeff74>
    8000247c:	41ed89b3          	sub	x19,x27,x30
    80002480:	b0d86313          	ori	x6,x16,-1267
    80002484:	344b1e73          	csrrw	x28,mip,x22
    80002488:	40010537          	lui	x10,0x40010
    8000248c:	00a50533          	add	x10,x10,x10
    80002490:	00654e03          	lbu	x28,6(x10) # 40010006 <_binary_lab4_test_bin_size+0x3ffefef6>
    80002494:	400101b7          	lui	x3,0x40010
    80002498:	003181b3          	add	x3,x3,x3
    8000249c:	10018193          	addi	x3,x3,256 # 40010100 <_binary_lab4_test_bin_size+0x3ffefff0>
    800024a0:	f4219c03          	lh	x24,-190(x3)
    800024a4:	954d7d13          	andi	x26,x26,-1708
    800024a8:	01dae4b3          	or	x9,x21,x29
    800024ac:	40010e37          	lui	x28,0x40010
    800024b0:	01ce0e33          	add	x28,x28,x28
    800024b4:	002e5b83          	lhu	x23,2(x28) # 40010002 <_binary_lab4_test_bin_size+0x3ffefef2>
    800024b8:	0173cdb3          	xor	x27,x7,x23
    800024bc:	01aa8933          	add	x18,x21,x26
    800024c0:	01c208b3          	add	x17,x4,x28
    800024c4:	00edcfb3          	xor	x31,x27,x14
    800024c8:	400101b7          	lui	x3,0x40010
    800024cc:	003181b3          	add	x3,x3,x3
    800024d0:	01c1d903          	lhu	x18,28(x3) # 4001001c <_binary_lab4_test_bin_size+0x3ffeff0c>
    800024d4:	00896b33          	or	x22,x18,x8
    800024d8:	f7e18c9b          	addiw	x25,x3,-130
    800024dc:	c5e86d13          	ori	x26,x16,-930
    800024e0:	0091e633          	or	x12,x3,x9
    800024e4:	40010d37          	lui	x26,0x40010
    800024e8:	01ad0d33          	add	x26,x26,x26
    800024ec:	100d0d13          	addi	x26,x26,256 # 40010100 <_binary_lab4_test_bin_size+0x3ffefff0>
    800024f0:	f98d3783          	ld	x15,-104(x26)
    800024f4:	40010f37          	lui	x30,0x40010
    800024f8:	01ef0f33          	add	x30,x30,x30
    800024fc:	100f0f13          	addi	x30,x30,256 # 40010100 <_binary_lab4_test_bin_size+0x3ffefff0>
    80002500:	fc4f6b83          	lwu	x23,-60(x30)
    80002504:	0178f833          	and	x16,x17,x23
    80002508:	344f97f3          	csrrw	x15,mip,x31
    8000250c:	015b0f33          	add	x30,x22,x21
    80002510:	01da8fb3          	add	x31,x21,x29
    80002514:	40010e37          	lui	x28,0x40010
    80002518:	01ce0e33          	add	x28,x28,x28
    8000251c:	06de4f03          	lbu	x30,109(x28) # 4001006d <_binary_lab4_test_bin_size+0x3ffeff5d>
    80002520:	01a26633          	or	x12,x4,x26
    80002524:	40010fb7          	lui	x31,0x40010
    80002528:	01ff8fb3          	add	x31,x31,x31
    8000252c:	100f8f93          	addi	x31,x31,256 # 40010100 <_binary_lab4_test_bin_size+0x3ffefff0>
    80002530:	f02fa623          	sw	x2,-244(x31)
    80002534:	40010237          	lui	x4,0x40010
    80002538:	00420233          	add	x4,x4,x4
    8000253c:	10020213          	addi	x4,x4,256 # 40010100 <_binary_lab4_test_bin_size+0x3ffefff0>
    80002540:	fd623823          	sd	x22,-48(x4) # ffffffffffffffd0 <_binary_lab4_test_bin_end+0xffffffff7ffdfec0>
    80002544:	3422e1f3          	csrrsi	x3,mcause,5
    80002548:	400101b7          	lui	x3,0x40010
    8000254c:	003181b3          	add	x3,x3,x3
    80002550:	10018193          	addi	x3,x3,256 # 40010100 <_binary_lab4_test_bin_size+0x3ffefff0>
    80002554:	fe81b903          	ld	x18,-24(x3)
    80002558:	573d8993          	addi	x19,x27,1395
    8000255c:	61f27693          	andi	x13,x4,1567
    80002560:	411d843b          	subw	x8,x27,x17
    80002564:	344679f3          	csrrci	x19,mip,12
    80002568:	017d7fb3          	and	x31,x26,x23
    8000256c:	34179ff3          	csrrw	x31,mepc,x15
    80002570:	40010d37          	lui	x26,0x40010
    80002574:	01ad0d33          	add	x26,x26,x26
    80002578:	064d6283          	lwu	x5,100(x26) # 40010064 <_binary_lab4_test_bin_size+0x3ffeff54>
    8000257c:	3eee7293          	andi	x5,x28,1006
    80002580:	400105b7          	lui	x11,0x40010
    80002584:	00b585b3          	add	x11,x11,x11
    80002588:	10058593          	addi	x11,x11,256 # 40010100 <_binary_lab4_test_bin_size+0x3ffefff0>
    8000258c:	f7959423          	sh	x25,-152(x11)
    80002590:	82277f13          	andi	x30,x14,-2014
    80002594:	3418e573          	csrrsi	x10,mepc,17
    80002598:	41898233          	sub	x4,x19,x24
    8000259c:	400108b7          	lui	x17,0x40010
    800025a0:	011888b3          	add	x17,x17,x17
    800025a4:	10088893          	addi	x17,x17,256 # 40010100 <_binary_lab4_test_bin_size+0x3ffefff0>
    800025a8:	f0689a03          	lh	x20,-250(x17)
    800025ac:	007ecdb3          	xor	x27,x29,x7
    800025b0:	00cfc3b3          	xor	x7,x31,x12
    800025b4:	40010337          	lui	x6,0x40010
    800025b8:	00630333          	add	x6,x6,x6
    800025bc:	05131523          	sh	x17,74(x6) # 4001004a <_binary_lab4_test_bin_size+0x3ffeff3a>
    800025c0:	3447ff73          	csrrci	x30,mip,15
    800025c4:	304fdef3          	csrrwi	x29,mie,31
    800025c8:	3436e273          	csrrsi	x4,mtval,13
    800025cc:	40010e37          	lui	x28,0x40010
    800025d0:	01ce0e33          	add	x28,x28,x28
    800025d4:	100e0e13          	addi	x28,x28,256 # 40010100 <_binary_lab4_test_bin_size+0x3ffefff0>
    800025d8:	f74e2b83          	lw	x23,-140(x28)
    800025dc:	01217bb3          	and	x23,x2,x18
    800025e0:	407b8a33          	sub	x20,x23,x7
    800025e4:	40010b37          	lui	x22,0x40010
    800025e8:	016b0b33          	add	x22,x22,x22
    800025ec:	100b0b13          	addi	x22,x22,256 # 40010100 <_binary_lab4_test_bin_size+0x3ffefff0>
    800025f0:	f8bb0123          	sb	x11,-126(x22)
    800025f4:	007a7ab3          	and	x21,x20,x7
    800025f8:	40010eb7          	lui	x29,0x40010
    800025fc:	01de8eb3          	add	x29,x29,x29
    80002600:	045e9723          	sh	x5,78(x29) # 4001004e <_binary_lab4_test_bin_size+0x3ffeff3e>
    80002604:	444e7213          	andi	x4,x28,1092
    80002608:	40010437          	lui	x8,0x40010
    8000260c:	00840433          	add	x8,x8,x8
    80002610:	08043d03          	ld	x26,128(x8) # 40010080 <_binary_lab4_test_bin_size+0x3ffeff70>
    80002614:	83cacd13          	xori	x26,x21,-1988
    80002618:	30555b73          	csrrwi	x22,mtvec,10
    8000261c:	01646a33          	or	x20,x8,x22
    80002620:	019b7db3          	and	x27,x22,x25
    80002624:	40010eb7          	lui	x29,0x40010
    80002628:	01de8eb3          	add	x29,x29,x29
    8000262c:	100e8e93          	addi	x29,x29,256 # 40010100 <_binary_lab4_test_bin_size+0x3ffefff0>
    80002630:	f9ae9703          	lh	x14,-102(x29)
    80002634:	008740b3          	xor	x1,x14,x8
    80002638:	40010537          	lui	x10,0x40010
    8000263c:	00a50533          	add	x10,x10,x10
    80002640:	10050513          	addi	x10,x10,256 # 40010100 <_binary_lab4_test_bin_size+0x3ffefff0>
    80002644:	f1150123          	sb	x17,-254(x10)
    80002648:	96708313          	addi	x6,x1,-1689
    8000264c:	fe328713          	addi	x14,x5,-29
    80002650:	01088033          	add	x0,x17,x16
    80002654:	f1dde093          	ori	x1,x27,-227
    80002658:	40010ab7          	lui	x21,0x40010
    8000265c:	015a8ab3          	add	x21,x21,x21
    80002660:	0c4aee83          	lwu	x29,196(x21) # 400100c4 <_binary_lab4_test_bin_size+0x3ffeffb4>
    80002664:	b63f8e93          	addi	x29,x31,-1181
    80002668:	344dd173          	csrrwi	x2,mip,27
    8000266c:	304ed473          	csrrwi	x8,mie,29
    80002670:	400102b7          	lui	x5,0x40010
    80002674:	005282b3          	add	x5,x5,x5
    80002678:	05f286a3          	sb	x31,77(x5) # 4001004d <_binary_lab4_test_bin_size+0x3ffeff3d>
    8000267c:	c4744093          	xori	x1,x8,-953
    80002680:	304dfb73          	csrrci	x22,mie,27
    80002684:	01ee4233          	xor	x4,x28,x30
    80002688:	400108b7          	lui	x17,0x40010
    8000268c:	011888b3          	add	x17,x17,x17
    80002690:	01b8b823          	sd	x27,16(x17) # 40010010 <_binary_lab4_test_bin_size+0x3ffeff00>
    80002694:	40010ab7          	lui	x21,0x40010
    80002698:	015a8ab3          	add	x21,x21,x21
    8000269c:	100a8a93          	addi	x21,x21,256 # 40010100 <_binary_lab4_test_bin_size+0x3ffefff0>
    800026a0:	f0caed03          	lwu	x26,-244(x21)
    800026a4:	d81d6d13          	ori	x26,x26,-639
    800026a8:	40248eb3          	sub	x29,x9,x2
    800026ac:	1b9d4b13          	xori	x22,x26,441
    800026b0:	343dd973          	csrrwi	x18,mtval,27
    800026b4:	40010a37          	lui	x20,0x40010
    800026b8:	014a0a33          	add	x20,x20,x20
    800026bc:	010a6383          	lwu	x7,16(x20) # 40010010 <_binary_lab4_test_bin_size+0x3ffeff00>
    800026c0:	400102b7          	lui	x5,0x40010
    800026c4:	005282b3          	add	x5,x5,x5
    800026c8:	05729723          	sh	x23,78(x5) # 4001004e <_binary_lab4_test_bin_size+0x3ffeff3e>
    800026cc:	40010637          	lui	x12,0x40010
    800026d0:	00c60633          	add	x12,x12,x12
    800026d4:	10060613          	addi	x12,x12,256 # 40010100 <_binary_lab4_test_bin_size+0x3ffefff0>
    800026d8:	f9963423          	sd	x25,-120(x12)
    800026dc:	7c4bf893          	andi	x17,x23,1988
    800026e0:	343fd2f3          	csrrwi	x5,mtval,31
    800026e4:	0119eb33          	or	x22,x19,x17
    800026e8:	017e0b3b          	addw	x22,x28,x23
    800026ec:	40010bb7          	lui	x23,0x40010
    800026f0:	017b8bb3          	add	x23,x23,x23
    800026f4:	100b8b93          	addi	x23,x23,256 # 40010100 <_binary_lab4_test_bin_size+0x3ffefff0>
    800026f8:	f98bad03          	lw	x26,-104(x23)
    800026fc:	016d0933          	add	x18,x26,x22
    80002700:	40010637          	lui	x12,0x40010
    80002704:	00c60633          	add	x12,x12,x12
    80002708:	10060613          	addi	x12,x12,256 # 40010100 <_binary_lab4_test_bin_size+0x3ffefff0>
    8000270c:	fc662023          	sw	x6,-64(x12)
    80002710:	00726e33          	or	x28,x4,x7
    80002714:	40010937          	lui	x18,0x40010
    80002718:	01290933          	add	x18,x18,x18
    8000271c:	10090913          	addi	x18,x18,256 # 40010100 <_binary_lab4_test_bin_size+0x3ffefff0>
    80002720:	f9490123          	sb	x20,-126(x18)
    80002724:	415a0733          	sub	x14,x20,x21
    80002728:	0114cfb3          	xor	x31,x9,x17
    8000272c:	34159df3          	csrrw	x27,mepc,x11
    80002730:	341092f3          	csrrw	x5,mepc,x1
    80002734:	41b4063b          	subw	x12,x8,x27
    80002738:	40010c37          	lui	x24,0x40010
    8000273c:	018c0c33          	add	x24,x24,x24
    80002740:	100c0c13          	addi	x24,x24,256 # 40010100 <_binary_lab4_test_bin_size+0x3ffefff0>
    80002744:	f60c3e03          	ld	x28,-160(x24)
    80002748:	fac98e1b          	addiw	x28,x19,-84
    8000274c:	0042803b          	addw	x0,x5,x4
    80002750:	40010737          	lui	x14,0x40010
    80002754:	00e70733          	add	x14,x14,x14
    80002758:	10070713          	addi	x14,x14,256 # 40010100 <_binary_lab4_test_bin_size+0x3ffefff0>
    8000275c:	fc870ca3          	sb	x8,-39(x14)
    80002760:	40010f37          	lui	x30,0x40010
    80002764:	01ef0f33          	add	x30,x30,x30
    80002768:	100f0f13          	addi	x30,x30,256 # 40010100 <_binary_lab4_test_bin_size+0x3ffefff0>
    8000276c:	fd0f1c03          	lh	x24,-48(x30)
    80002770:	004c09bb          	addw	x19,x24,x4
    80002774:	40010c37          	lui	x24,0x40010
    80002778:	018c0c33          	add	x24,x24,x24
    8000277c:	057c1923          	sh	x23,82(x24) # 40010052 <_binary_lab4_test_bin_size+0x3ffeff42>
    80002780:	b3a3079b          	addiw	x15,x6,-1222
    80002784:	3053d6f3          	csrrwi	x13,mtvec,7
    80002788:	343f7773          	csrrci	x14,mtval,30
    8000278c:	40010eb7          	lui	x29,0x40010
    80002790:	01de8eb3          	add	x29,x29,x29
    80002794:	100e8e93          	addi	x29,x29,256 # 40010100 <_binary_lab4_test_bin_size+0x3ffefff0>
    80002798:	f20ebe83          	ld	x29,-224(x29)
    8000279c:	40c706bb          	subw	x13,x14,x12
    800027a0:	400108b7          	lui	x17,0x40010
    800027a4:	011888b3          	add	x17,x17,x17
    800027a8:	07f8b023          	sd	x31,96(x17) # 40010060 <_binary_lab4_test_bin_size+0x3ffeff50>
    800027ac:	70a1c193          	xori	x3,x3,1802
    800027b0:	400103b7          	lui	x7,0x40010
    800027b4:	007383b3          	add	x7,x7,x7
    800027b8:	0a038123          	sb	x0,162(x7) # 400100a2 <_binary_lab4_test_bin_size+0x3ffeff92>
    800027bc:	40010f37          	lui	x30,0x40010
    800027c0:	01ef0f33          	add	x30,x30,x30
    800027c4:	0f2f5683          	lhu	x13,242(x30) # 400100f2 <_binary_lab4_test_bin_size+0x3ffeffe2>
    800027c8:	000e76b3          	and	x13,x28,x0
    800027cc:	40010db7          	lui	x27,0x40010
    800027d0:	01bd8db3          	add	x27,x27,x27
    800027d4:	100d8d93          	addi	x27,x27,256 # 40010100 <_binary_lab4_test_bin_size+0x3ffefff0>
    800027d8:	fbcddb83          	lhu	x23,-68(x27)
    800027dc:	01ad8bb3          	add	x23,x27,x26
    800027e0:	41048b33          	sub	x22,x9,x16
    800027e4:	40010937          	lui	x18,0x40010
    800027e8:	01290933          	add	x18,x18,x18
    800027ec:	10090913          	addi	x18,x18,256 # 40010100 <_binary_lab4_test_bin_size+0x3ffefff0>
    800027f0:	fe091383          	lh	x7,-32(x18)
    800027f4:	a7a3071b          	addiw	x14,x6,-1414
    800027f8:	1b686a93          	ori	x21,x16,438
    800027fc:	400101b7          	lui	x3,0x40010
    80002800:	003181b3          	add	x3,x3,x3
    80002804:	10018193          	addi	x3,x3,256 # 40010100 <_binary_lab4_test_bin_size+0x3ffefff0>
    80002808:	ffe1a823          	sw	x30,-16(x3)
    8000280c:	01abf1b3          	and	x3,x23,x26
    80002810:	40010137          	lui	x2,0x40010
    80002814:	00210133          	add	x2,x2,x2
    80002818:	07b14c83          	lbu	x25,123(x2) # 4001007b <_binary_lab4_test_bin_size+0x3ffeff6b>
    8000281c:	34415873          	csrrwi	x16,mip,2
    80002820:	344f9773          	csrrw	x14,mip,x31
    80002824:	fc87f993          	andi	x19,x15,-56
    80002828:	40010db7          	lui	x27,0x40010
    8000282c:	01bd8db3          	add	x27,x27,x27
    80002830:	100d8d93          	addi	x27,x27,256 # 40010100 <_binary_lab4_test_bin_size+0x3ffefff0>
    80002834:	f4fdb023          	sd	x15,-192(x27)
    80002838:	3439d473          	csrrwi	x8,mtval,19
    8000283c:	40010cb7          	lui	x25,0x40010
    80002840:	019c8cb3          	add	x25,x25,x25
    80002844:	100c8c93          	addi	x25,x25,256 # 40010100 <_binary_lab4_test_bin_size+0x3ffefff0>
    80002848:	f40c8303          	lb	x6,-192(x25)
    8000284c:	99954f13          	xori	x30,x10,-1639
    80002850:	3422d573          	csrrwi	x10,mcause,5
    80002854:	40010337          	lui	x6,0x40010
    80002858:	00630333          	add	x6,x6,x6
    8000285c:	0be33c23          	sd	x30,184(x6) # 400100b8 <_binary_lab4_test_bin_size+0x3ffeffa8>
    80002860:	342df5f3          	csrrci	x11,mcause,27
    80002864:	c21d0993          	addi	x19,x26,-991
    80002868:	0171023b          	addw	x4,x2,x23
    8000286c:	00cefcb3          	and	x25,x29,x12
    80002870:	40010fb7          	lui	x31,0x40010
    80002874:	01ff8fb3          	add	x31,x31,x31
    80002878:	100f8f93          	addi	x31,x31,256 # 40010100 <_binary_lab4_test_bin_size+0x3ffefff0>
    8000287c:	f8af9323          	sh	x10,-122(x31)
    80002880:	00a36033          	or	x0,x6,x10
    80002884:	c0290f1b          	addiw	x30,x18,-1022
    80002888:	6f917913          	andi	x18,x2,1785
    8000288c:	01486e33          	or	x28,x16,x20
    80002890:	0058c3b3          	xor	x7,x17,x5
    80002894:	400105b7          	lui	x11,0x40010
    80002898:	00b585b3          	add	x11,x11,x11
    8000289c:	0035ac23          	sw	x3,24(x11) # 40010018 <_binary_lab4_test_bin_size+0x3ffeff08>
    800028a0:	40010837          	lui	x16,0x40010
    800028a4:	01080833          	add	x16,x16,x16
    800028a8:	10080813          	addi	x16,x16,256 # 40010100 <_binary_lab4_test_bin_size+0x3ffefff0>
    800028ac:	fae83423          	sd	x14,-88(x16)
    800028b0:	f2227393          	andi	x7,x4,-222
    800028b4:	4187093b          	subw	x18,x14,x24
    800028b8:	400100b7          	lui	x1,0x40010
    800028bc:	001080b3          	add	x1,x1,x1
    800028c0:	10008093          	addi	x1,x1,256 # 40010100 <_binary_lab4_test_bin_size+0x3ffefff0>
    800028c4:	f0c0eb03          	lwu	x22,-244(x1)
    800028c8:	40010137          	lui	x2,0x40010
    800028cc:	00210133          	add	x2,x2,x2
    800028d0:	10010113          	addi	x2,x2,256 # 40010100 <_binary_lab4_test_bin_size+0x3ffefff0>
    800028d4:	fe910183          	lb	x3,-23(x2)
    800028d8:	400101b7          	lui	x3,0x40010
    800028dc:	003181b3          	add	x3,x3,x3
    800028e0:	10018193          	addi	x3,x3,256 # 40010100 <_binary_lab4_test_bin_size+0x3ffefff0>
    800028e4:	f5a18823          	sb	x26,-176(x3)
    800028e8:	19910a93          	addi	x21,x2,409
    800028ec:	400107b7          	lui	x15,0x40010
    800028f0:	00f787b3          	add	x15,x15,x15
    800028f4:	10078793          	addi	x15,x15,256 # 40010100 <_binary_lab4_test_bin_size+0x3ffefff0>
    800028f8:	fb378e83          	lb	x29,-77(x15)
    800028fc:	01f20ebb          	addw	x29,x4,x31
    80002900:	01f08833          	add	x16,x1,x31
    80002904:	40010237          	lui	x4,0x40010
    80002908:	00420233          	add	x4,x4,x4
    8000290c:	10020213          	addi	x4,x4,256 # 40010100 <_binary_lab4_test_bin_size+0x3ffefff0>
    80002910:	fec26a03          	lwu	x20,-20(x4) # ffffffffffffffec <_binary_lab4_test_bin_end+0xffffffff7ffdfedc>
    80002914:	007b0533          	add	x10,x22,x7
    80002918:	41ba883b          	subw	x16,x21,x27
    8000291c:	30575e73          	csrrwi	x28,mtvec,14
    80002920:	40010fb7          	lui	x31,0x40010
    80002924:	01ff8fb3          	add	x31,x31,x31
    80002928:	100f8f93          	addi	x31,x31,256 # 40010100 <_binary_lab4_test_bin_size+0x3ffefff0>
    8000292c:	fb6fdb83          	lhu	x23,-74(x31)
    80002930:	40fa89b3          	sub	x19,x21,x15
    80002934:	40010fb7          	lui	x31,0x40010
    80002938:	01ff8fb3          	add	x31,x31,x31
    8000293c:	071f8603          	lb	x12,113(x31) # 40010071 <_binary_lab4_test_bin_size+0x3ffeff61>
    80002940:	41a60c33          	sub	x24,x12,x26
    80002944:	400109b7          	lui	x19,0x40010
    80002948:	013989b3          	add	x19,x19,x19
    8000294c:	03e99883          	lh	x17,62(x19) # 4001003e <_binary_lab4_test_bin_size+0x3ffeff2e>
    80002950:	afff8493          	addi	x9,x31,-1281
    80002954:	400102b7          	lui	x5,0x40010
    80002958:	005282b3          	add	x5,x5,x5
    8000295c:	0b82bd03          	ld	x26,184(x5) # 400100b8 <_binary_lab4_test_bin_size+0x3ffeffa8>
    80002960:	18abed13          	ori	x26,x23,394
    80002964:	a46a801b          	addiw	x0,x21,-1466
    80002968:	0088c133          	xor	x2,x17,x8
    8000296c:	342a1473          	csrrw	x8,mcause,x20
    80002970:	400107b7          	lui	x15,0x40010
    80002974:	00f787b3          	add	x15,x15,x15
    80002978:	0df7c283          	lbu	x5,223(x15) # 400100df <_binary_lab4_test_bin_size+0x3ffeffcf>
    8000297c:	304e5a73          	csrrwi	x20,mie,28
    80002980:	400108b7          	lui	x17,0x40010
    80002984:	011888b3          	add	x17,x17,x17
    80002988:	0888dd03          	lhu	x26,136(x17) # 40010088 <_binary_lab4_test_bin_size+0x3ffeff78>
    8000298c:	3445f8f3          	csrrci	x17,mip,11
    80002990:	3053fff3          	csrrci	x31,mtvec,7
    80002994:	400103b7          	lui	x7,0x40010
    80002998:	007383b3          	add	x7,x7,x7
    8000299c:	09f38e03          	lb	x28,159(x7) # 4001009f <_binary_lab4_test_bin_size+0x3ffeff8f>
    800029a0:	aeef8e1b          	addiw	x28,x31,-1298
    800029a4:	400107b7          	lui	x15,0x40010
    800029a8:	00f787b3          	add	x15,x15,x15
    800029ac:	10078793          	addi	x15,x15,256 # 40010100 <_binary_lab4_test_bin_size+0x3ffefff0>
    800029b0:	f987c283          	lbu	x5,-104(x15)
    800029b4:	00fe7bb3          	and	x23,x28,x15
    800029b8:	002f4bb3          	xor	x23,x30,x2
    800029bc:	01a3f433          	and	x8,x7,x26
    800029c0:	40010bb7          	lui	x23,0x40010
    800029c4:	017b8bb3          	add	x23,x23,x23
    800029c8:	100b8b93          	addi	x23,x23,256 # 40010100 <_binary_lab4_test_bin_size+0x3ffefff0>
    800029cc:	f5ebcf83          	lbu	x31,-162(x23)
    800029d0:	49280f9b          	addiw	x31,x16,1170
    800029d4:	40010eb7          	lui	x29,0x40010
    800029d8:	01de8eb3          	add	x29,x29,x29
    800029dc:	0ede9423          	sh	x13,232(x29) # 400100e8 <_binary_lab4_test_bin_size+0x3ffeffd8>
    800029e0:	40010fb7          	lui	x31,0x40010
    800029e4:	01ff8fb3          	add	x31,x31,x31
    800029e8:	07cfda83          	lhu	x21,124(x31) # 4001007c <_binary_lab4_test_bin_size+0x3ffeff6c>
    800029ec:	409a8433          	sub	x8,x21,x9
    800029f0:	40010537          	lui	x10,0x40010
    800029f4:	00a50533          	add	x10,x10,x10
    800029f8:	07c56183          	lwu	x3,124(x10) # 4001007c <_binary_lab4_test_bin_size+0x3ffeff6c>
    800029fc:	40010e37          	lui	x28,0x40010
    80002a00:	01ce0e33          	add	x28,x28,x28
    80002a04:	100e0e13          	addi	x28,x28,256 # 40010100 <_binary_lab4_test_bin_size+0x3ffefff0>
    80002a08:	f00e6003          	lwu	x0,-256(x28)
    80002a0c:	00c07233          	and	x4,x0,x12
    80002a10:	40010c37          	lui	x24,0x40010
    80002a14:	018c0c33          	add	x24,x24,x24
    80002a18:	100c0c13          	addi	x24,x24,256 # 40010100 <_binary_lab4_test_bin_size+0x3ffefff0>
    80002a1c:	fbcc1903          	lh	x18,-68(x24)
    80002a20:	00994733          	xor	x14,x18,x9
    80002a24:	40010237          	lui	x4,0x40010
    80002a28:	00420233          	add	x4,x4,x4
    80002a2c:	08721123          	sh	x7,130(x4) # 40010082 <_binary_lab4_test_bin_size+0x3ffeff72>
    80002a30:	40010d37          	lui	x26,0x40010
    80002a34:	01ad0d33          	add	x26,x26,x26
    80002a38:	0c0d6703          	lwu	x14,192(x26) # 400100c0 <_binary_lab4_test_bin_size+0x3ffeffb0>
    80002a3c:	40eb8233          	sub	x4,x23,x14
    80002a40:	40f10ab3          	sub	x21,x2,x15
    80002a44:	11ec6193          	ori	x3,x24,286
    80002a48:	00c282bb          	addw	x5,x5,x12
    80002a4c:	0146013b          	addw	x2,x12,x20
    80002a50:	400107b7          	lui	x15,0x40010
    80002a54:	00f787b3          	add	x15,x15,x15
    80002a58:	0887b883          	ld	x17,136(x15) # 40010088 <_binary_lab4_test_bin_size+0x3ffeff78>
    80002a5c:	010588bb          	addw	x17,x11,x16
    80002a60:	40010d37          	lui	x26,0x40010
    80002a64:	01ad0d33          	add	x26,x26,x26
    80002a68:	100d0d13          	addi	x26,x26,256 # 40010100 <_binary_lab4_test_bin_size+0x3ffefff0>
    80002a6c:	f48d6a03          	lwu	x20,-184(x26)
    80002a70:	9578ea13          	ori	x20,x17,-1705
    80002a74:	40010137          	lui	x2,0x40010
    80002a78:	00210133          	add	x2,x2,x2
    80002a7c:	10010113          	addi	x2,x2,256 # 40010100 <_binary_lab4_test_bin_size+0x3ffefff0>
    80002a80:	fe911d23          	sh	x9,-6(x2)
    80002a84:	b8e0e713          	ori	x14,x1,-1138
    80002a88:	e59a0b93          	addi	x23,x20,-423
    80002a8c:	0035fbb3          	and	x23,x11,x3
    80002a90:	344256f3          	csrrwi	x13,mip,4
    80002a94:	41d80933          	sub	x18,x16,x29
    80002a98:	400101b7          	lui	x3,0x40010
    80002a9c:	003181b3          	add	x3,x3,x3
    80002aa0:	02b1b023          	sd	x11,32(x3) # 40010020 <_binary_lab4_test_bin_size+0x3ffeff10>
    80002aa4:	400103b7          	lui	x7,0x40010
    80002aa8:	007383b3          	add	x7,x7,x7
    80002aac:	10038393          	addi	x7,x7,256 # 40010100 <_binary_lab4_test_bin_size+0x3ffefff0>
    80002ab0:	f183a423          	sw	x24,-248(x7)
    80002ab4:	9da00a1b          	addiw	x20,x0,-1574
    80002ab8:	40010f37          	lui	x30,0x40010
    80002abc:	01ef0f33          	add	x30,x30,x30
    80002ac0:	0d8f6583          	lwu	x11,216(x30) # 400100d8 <_binary_lab4_test_bin_size+0x3ffeffc8>
    80002ac4:	1995e293          	ori	x5,x11,409
    80002ac8:	018164b3          	or	x9,x2,x24
    80002acc:	30557cf3          	csrrci	x25,mtvec,10
    80002ad0:	304455f3          	csrrwi	x11,mie,8
    80002ad4:	400103b7          	lui	x7,0x40010
    80002ad8:	007383b3          	add	x7,x7,x7
    80002adc:	00639b23          	sh	x6,22(x7) # 40010016 <_binary_lab4_test_bin_size+0x3ffeff06>
    80002ae0:	400104b7          	lui	x9,0x40010
    80002ae4:	009484b3          	add	x9,x9,x9
    80002ae8:	01d488a3          	sb	x29,17(x9) # 40010011 <_binary_lab4_test_bin_size+0x3ffeff01>
    80002aec:	faa1f293          	andi	x5,x3,-86
    80002af0:	00a4fe33          	and	x28,x9,x10
    80002af4:	400108b7          	lui	x17,0x40010
    80002af8:	011888b3          	add	x17,x17,x17
    80002afc:	10088893          	addi	x17,x17,256 # 40010100 <_binary_lab4_test_bin_size+0x3ffefff0>
    80002b00:	f2388883          	lb	x17,-221(x17)
    80002b04:	402608b3          	sub	x17,x12,x2
    80002b08:	2cce069b          	addiw	x13,x28,716
    80002b0c:	40010b37          	lui	x22,0x40010
    80002b10:	016b0b33          	add	x22,x22,x22
    80002b14:	021b0223          	sb	x1,36(x22) # 40010024 <_binary_lab4_test_bin_size+0x3ffeff14>
    80002b18:	135d009b          	addiw	x1,x26,309
    80002b1c:	40010237          	lui	x4,0x40010
    80002b20:	00420233          	add	x4,x4,x4
    80002b24:	10020213          	addi	x4,x4,256 # 40010100 <_binary_lab4_test_bin_size+0x3ffefff0>
    80002b28:	f6625a03          	lhu	x20,-154(x4) # ffffffffffffff66 <_binary_lab4_test_bin_end+0xffffffff7ffdfe56>
    80002b2c:	3444e6f3          	csrrsi	x13,mip,9
    80002b30:	40010eb7          	lui	x29,0x40010
    80002b34:	01de8eb3          	add	x29,x29,x29
    80002b38:	056eb823          	sd	x22,80(x29) # 40010050 <_binary_lab4_test_bin_size+0x3ffeff40>
    80002b3c:	406c8f3b          	subw	x30,x25,x6
    80002b40:	400107b7          	lui	x15,0x40010
    80002b44:	00f787b3          	add	x15,x15,x15
    80002b48:	10078793          	addi	x15,x15,256 # 40010100 <_binary_lab4_test_bin_size+0x3ffefff0>
    80002b4c:	f1278b83          	lb	x23,-238(x15)
    80002b50:	3f78ee93          	ori	x29,x17,1015
    80002b54:	40010a37          	lui	x20,0x40010
    80002b58:	014a0a33          	add	x20,x20,x20
    80002b5c:	100a0a13          	addi	x20,x20,256 # 40010100 <_binary_lab4_test_bin_size+0x3ffefff0>
    80002b60:	f26a3023          	sd	x6,-224(x20)
    80002b64:	40010c37          	lui	x24,0x40010
    80002b68:	018c0c33          	add	x24,x24,x24
    80002b6c:	0bcc2983          	lw	x19,188(x24) # 400100bc <_binary_lab4_test_bin_size+0x3ffeffac>
    80002b70:	341cfd73          	csrrci	x26,mepc,25
    80002b74:	34375673          	csrrwi	x12,mtval,14
    80002b78:	304761f3          	csrrsi	x3,mie,14
    80002b7c:	400103b7          	lui	x7,0x40010
    80002b80:	007383b3          	add	x7,x7,x7
    80002b84:	10038393          	addi	x7,x7,256 # 40010100 <_binary_lab4_test_bin_size+0x3ffefff0>
    80002b88:	fba3a623          	sw	x26,-84(x7)
    80002b8c:	408a0433          	sub	x8,x20,x8
    80002b90:	018dce33          	xor	x28,x27,x24
    80002b94:	400107b7          	lui	x15,0x40010
    80002b98:	00f787b3          	add	x15,x15,x15
    80002b9c:	10078793          	addi	x15,x15,256 # 40010100 <_binary_lab4_test_bin_size+0x3ffefff0>
    80002ba0:	f447aa23          	sw	x4,-172(x15)
    80002ba4:	400108b7          	lui	x17,0x40010
    80002ba8:	011888b3          	add	x17,x17,x17
    80002bac:	09c8df03          	lhu	x30,156(x17) # 4001009c <_binary_lab4_test_bin_size+0x3ffeff8c>
    80002bb0:	934f0f1b          	addiw	x30,x30,-1740
    80002bb4:	01228a3b          	addw	x20,x5,x18
    80002bb8:	00d2c493          	xori	x9,x5,13
    80002bbc:	0128ea33          	or	x20,x17,x18
    80002bc0:	400105b7          	lui	x11,0x40010
    80002bc4:	00b585b3          	add	x11,x11,x11
    80002bc8:	04b59d23          	sh	x11,90(x11) # 4001005a <_binary_lab4_test_bin_size+0x3ffeff4a>
    80002bcc:	0139083b          	addw	x16,x18,x19
    80002bd0:	b0c3f993          	andi	x19,x7,-1268
    80002bd4:	34276ff3          	csrrsi	x31,mcause,14
    80002bd8:	40df8cb3          	sub	x25,x31,x13
    80002bdc:	01cac8b3          	xor	x17,x21,x28
    80002be0:	40010fb7          	lui	x31,0x40010
    80002be4:	01ff8fb3          	add	x31,x31,x31
    80002be8:	100f8f93          	addi	x31,x31,256 # 40010100 <_binary_lab4_test_bin_size+0x3ffefff0>
    80002bec:	fa8fbb03          	ld	x22,-88(x31)
    80002bf0:	d76b4d93          	xori	x27,x22,-650
    80002bf4:	002947b3          	xor	x15,x18,x2
    80002bf8:	400105b7          	lui	x11,0x40010
    80002bfc:	00b585b3          	add	x11,x11,x11
    80002c00:	0c95ac23          	sw	x9,216(x11) # 400100d8 <_binary_lab4_test_bin_size+0x3ffeffc8>
    80002c04:	0007cdb3          	xor	x27,x15,x0
    80002c08:	400103b7          	lui	x7,0x40010
    80002c0c:	007383b3          	add	x7,x7,x7
    80002c10:	0ff3b023          	sd	x31,224(x7) # 400100e0 <_binary_lab4_test_bin_size+0x3ffeffd0>
    80002c14:	40010437          	lui	x8,0x40010
    80002c18:	00840433          	add	x8,x8,x8
    80002c1c:	10040413          	addi	x8,x8,256 # 40010100 <_binary_lab4_test_bin_size+0x3ffefff0>
    80002c20:	f6a44c03          	lbu	x24,-150(x8)
    80002c24:	5ef2ec13          	ori	x24,x5,1519
    80002c28:	00dd64b3          	or	x9,x26,x13
    80002c2c:	40010eb7          	lui	x29,0x40010
    80002c30:	01de8eb3          	add	x29,x29,x29
    80002c34:	0d5ec203          	lbu	x4,213(x29) # 400100d5 <_binary_lab4_test_bin_size+0x3ffeffc5>
    80002c38:	305e9273          	csrrw	x4,mtvec,x29
    80002c3c:	bc280f1b          	addiw	x30,x16,-1086
    80002c40:	400103b7          	lui	x7,0x40010
    80002c44:	007383b3          	add	x7,x7,x7
    80002c48:	10038393          	addi	x7,x7,256 # 40010100 <_binary_lab4_test_bin_size+0x3ffefff0>
    80002c4c:	fa53aa23          	sw	x5,-76(x7)
    80002c50:	400107b7          	lui	x15,0x40010
    80002c54:	00f787b3          	add	x15,x15,x15
    80002c58:	10078793          	addi	x15,x15,256 # 40010100 <_binary_lab4_test_bin_size+0x3ffefff0>
    80002c5c:	f1f78b23          	sb	x31,-234(x15)
    80002c60:	417288bb          	subw	x17,x5,x23
    80002c64:	400105b7          	lui	x11,0x40010
    80002c68:	00b585b3          	add	x11,x11,x11
    80002c6c:	10058593          	addi	x11,x11,256 # 40010100 <_binary_lab4_test_bin_size+0x3ffefff0>
    80002c70:	f0f58003          	lb	x0,-241(x11)
    80002c74:	400105b7          	lui	x11,0x40010
    80002c78:	00b585b3          	add	x11,x11,x11
    80002c7c:	10058593          	addi	x11,x11,256 # 40010100 <_binary_lab4_test_bin_size+0x3ffefff0>
    80002c80:	f525a823          	sw	x18,-176(x11)
    80002c84:	40010ab7          	lui	x21,0x40010
    80002c88:	015a8ab3          	add	x21,x21,x21
    80002c8c:	070adc03          	lhu	x24,112(x21) # 40010070 <_binary_lab4_test_bin_size+0x3ffeff60>
    80002c90:	b8027d13          	andi	x26,x4,-1152
    80002c94:	00e3e033          	or	x0,x7,x14
    80002c98:	406901b3          	sub	x3,x18,x6
    80002c9c:	bf654393          	xori	x7,x10,-1034
    80002ca0:	c5ae829b          	addiw	x5,x29,-934
    80002ca4:	400100b7          	lui	x1,0x40010
    80002ca8:	001080b3          	add	x1,x1,x1
    80002cac:	10008093          	addi	x1,x1,256 # 40010100 <_binary_lab4_test_bin_size+0x3ffefff0>
    80002cb0:	f2609923          	sh	x6,-206(x1)
    80002cb4:	7bcb8f93          	addi	x31,x23,1980
    80002cb8:	000d8c33          	add	x24,x27,x0
    80002cbc:	344818f3          	csrrw	x17,mip,x16
    80002cc0:	40010b37          	lui	x22,0x40010
    80002cc4:	016b0b33          	add	x22,x22,x22
    80002cc8:	091b0ca3          	sb	x17,153(x22) # 40010099 <_binary_lab4_test_bin_size+0x3ffeff89>
    80002ccc:	2d67e693          	ori	x13,x15,726
    80002cd0:	30479b73          	csrrw	x22,mie,x15
    80002cd4:	40010ab7          	lui	x21,0x40010
    80002cd8:	015a8ab3          	add	x21,x21,x21
    80002cdc:	100a8a93          	addi	x21,x21,256 # 40010100 <_binary_lab4_test_bin_size+0x3ffefff0>
    80002ce0:	f78ab683          	ld	x13,-136(x21)
    80002ce4:	d5278693          	addi	x13,x15,-686
    80002ce8:	3431d873          	csrrwi	x16,mtval,3
    80002cec:	016d06b3          	add	x13,x26,x22
    80002cf0:	40010b37          	lui	x22,0x40010
    80002cf4:	016b0b33          	add	x22,x22,x22
    80002cf8:	100b0b13          	addi	x22,x22,256 # 40010100 <_binary_lab4_test_bin_size+0x3ffefff0>
    80002cfc:	fb4b6e83          	lwu	x29,-76(x22)
    80002d00:	400103b7          	lui	x7,0x40010
    80002d04:	007383b3          	add	x7,x7,x7
    80002d08:	10038393          	addi	x7,x7,256 # 40010100 <_binary_lab4_test_bin_size+0x3ffefff0>
    80002d0c:	fec3ee03          	lwu	x28,-20(x7)
    80002d10:	2b836413          	ori	x8,x6,696
    80002d14:	400100b7          	lui	x1,0x40010
    80002d18:	001080b3          	add	x1,x1,x1
    80002d1c:	0d709a23          	sh	x23,212(x1) # 400100d4 <_binary_lab4_test_bin_size+0x3ffeffc4>
    80002d20:	3c2f0a13          	addi	x20,x30,962
    80002d24:	a9878f93          	addi	x31,x15,-1384
    80002d28:	0053e833          	or	x16,x7,x5
    80002d2c:	304862f3          	csrrsi	x5,mie,16
    80002d30:	01b47933          	and	x18,x8,x27
    80002d34:	400100b7          	lui	x1,0x40010
    80002d38:	001080b3          	add	x1,x1,x1
    80002d3c:	0140c483          	lbu	x9,20(x1) # 40010014 <_binary_lab4_test_bin_size+0x3ffeff04>
    80002d40:	40010fb7          	lui	x31,0x40010
    80002d44:	01ff8fb3          	add	x31,x31,x31
    80002d48:	100f8f93          	addi	x31,x31,256 # 40010100 <_binary_lab4_test_bin_size+0x3ffefff0>
    80002d4c:	ff3fa823          	sw	x19,-16(x31)
    80002d50:	400106b7          	lui	x13,0x40010
    80002d54:	00d686b3          	add	x13,x13,x13
    80002d58:	10068693          	addi	x13,x13,256 # 40010100 <_binary_lab4_test_bin_size+0x3ffefff0>
    80002d5c:	f3a68d03          	lb	x26,-198(x13)
    80002d60:	41318d33          	sub	x26,x3,x19
    80002d64:	40010937          	lui	x18,0x40010
    80002d68:	01290933          	add	x18,x18,x18
    80002d6c:	04092823          	sw	x0,80(x18) # 40010050 <_binary_lab4_test_bin_size+0x3ffeff40>
    80002d70:	01ffe5b3          	or	x11,x31,x31
    80002d74:	40010737          	lui	x14,0x40010
    80002d78:	00e70733          	add	x14,x14,x14
    80002d7c:	10070713          	addi	x14,x14,256 # 40010100 <_binary_lab4_test_bin_size+0x3ffefff0>
    80002d80:	ff873683          	ld	x13,-8(x14)
    80002d84:	01e6e8b3          	or	x17,x13,x30
    80002d88:	400106b7          	lui	x13,0x40010
    80002d8c:	00d686b3          	add	x13,x13,x13
    80002d90:	10068693          	addi	x13,x13,256 # 40010100 <_binary_lab4_test_bin_size+0x3ffefff0>
    80002d94:	f926b023          	sd	x18,-128(x13)
    80002d98:	2d666413          	ori	x8,x12,726
    80002d9c:	00858313          	addi	x6,x11,8
    80002da0:	400108b7          	lui	x17,0x40010
    80002da4:	011888b3          	add	x17,x17,x17
    80002da8:	10088893          	addi	x17,x17,256 # 40010100 <_binary_lab4_test_bin_size+0x3ffefff0>
    80002dac:	f888e183          	lwu	x3,-120(x17)
    80002db0:	0851c793          	xori	x15,x3,133
    80002db4:	400109b7          	lui	x19,0x40010
    80002db8:	013989b3          	add	x19,x19,x19
    80002dbc:	10098993          	addi	x19,x19,256 # 40010100 <_binary_lab4_test_bin_size+0x3ffefff0>
    80002dc0:	f789e383          	lwu	x7,-136(x19)
    80002dc4:	00f081bb          	addw	x3,x1,x15
    80002dc8:	400109b7          	lui	x19,0x40010
    80002dcc:	013989b3          	add	x19,x19,x19
    80002dd0:	08398503          	lb	x10,131(x19) # 40010083 <_binary_lab4_test_bin_size+0x3ffeff73>
    80002dd4:	40010337          	lui	x6,0x40010
    80002dd8:	00630333          	add	x6,x6,x6
    80002ddc:	01830123          	sb	x24,2(x6) # 40010002 <_binary_lab4_test_bin_size+0x3ffefef2>
    80002de0:	41cb0833          	sub	x16,x22,x28
    80002de4:	c6d8fd13          	andi	x26,x17,-915
    80002de8:	00bbe133          	or	x2,x23,x11
    80002dec:	342d6773          	csrrsi	x14,mcause,26
    80002df0:	40010437          	lui	x8,0x40010
    80002df4:	00840433          	add	x8,x8,x8
    80002df8:	10040413          	addi	x8,x8,256 # 40010100 <_binary_lab4_test_bin_size+0x3ffefff0>
    80002dfc:	f3e40c83          	lb	x25,-194(x8)
    80002e00:	7f62f813          	andi	x16,x5,2038
    80002e04:	f177859b          	addiw	x11,x15,-233
    80002e08:	01bf4333          	xor	x6,x30,x27
    80002e0c:	0103e033          	or	x0,x7,x16
    80002e10:	400101b7          	lui	x3,0x40010
    80002e14:	003181b3          	add	x3,x3,x3
    80002e18:	0fc1ee83          	lwu	x29,252(x3) # 400100fc <_binary_lab4_test_bin_size+0x3ffeffec>
    80002e1c:	83deff93          	andi	x31,x29,-1987
    80002e20:	40010837          	lui	x16,0x40010
    80002e24:	01080833          	add	x16,x16,x16
    80002e28:	10080813          	addi	x16,x16,256 # 40010100 <_binary_lab4_test_bin_size+0x3ffefff0>
    80002e2c:	f5281123          	sh	x18,-190(x16)
    80002e30:	40010c37          	lui	x24,0x40010
    80002e34:	018c0c33          	add	x24,x24,x24
    80002e38:	100c0c13          	addi	x24,x24,256 # 40010100 <_binary_lab4_test_bin_size+0x3ffefff0>
    80002e3c:	fdcc1f83          	lh	x31,-36(x24)
    80002e40:	01f2f6b3          	and	x13,x5,x31
    80002e44:	40c70433          	sub	x8,x14,x12
    80002e48:	0026c733          	xor	x14,x13,x2
    80002e4c:	41aa05bb          	subw	x11,x20,x26
    80002e50:	82ac0f9b          	addiw	x31,x24,-2006
    80002e54:	3414db73          	csrrwi	x22,mepc,9
    80002e58:	40010937          	lui	x18,0x40010
    80002e5c:	01290933          	add	x18,x18,x18
    80002e60:	01e93823          	sd	x30,16(x18) # 40010010 <_binary_lab4_test_bin_size+0x3ffeff00>
    80002e64:	30555af3          	csrrwi	x21,mtvec,10
    80002e68:	400105b7          	lui	x11,0x40010
    80002e6c:	00b585b3          	add	x11,x11,x11
    80002e70:	10058593          	addi	x11,x11,256 # 40010100 <_binary_lab4_test_bin_size+0x3ffefff0>
    80002e74:	f9659d03          	lh	x26,-106(x11)
    80002e78:	400103b7          	lui	x7,0x40010
    80002e7c:	007383b3          	add	x7,x7,x7
    80002e80:	10038393          	addi	x7,x7,256 # 40010100 <_binary_lab4_test_bin_size+0x3ffefff0>
    80002e84:	f6f39023          	sh	x15,-160(x7)
    80002e88:	41458d33          	sub	x26,x11,x20
    80002e8c:	400101b7          	lui	x3,0x40010
    80002e90:	003181b3          	add	x3,x3,x3
    80002e94:	0a81df03          	lhu	x30,168(x3) # 400100a8 <_binary_lab4_test_bin_size+0x3ffeff98>
    80002e98:	40010737          	lui	x14,0x40010
    80002e9c:	00e70733          	add	x14,x14,x14
    80002ea0:	06876983          	lwu	x19,104(x14) # 40010068 <_binary_lab4_test_bin_size+0x3ffeff58>
    80002ea4:	001b09b3          	add	x19,x22,x1
    80002ea8:	3045d673          	csrrwi	x12,mie,11
    80002eac:	15780393          	addi	x7,x16,343
    80002eb0:	3111f193          	andi	x3,x3,785
    80002eb4:	0107fbb3          	and	x23,x15,x16
    80002eb8:	40010e37          	lui	x28,0x40010
    80002ebc:	01ce0e33          	add	x28,x28,x28
    80002ec0:	100e0e13          	addi	x28,x28,256 # 40010100 <_binary_lab4_test_bin_size+0x3ffefff0>
    80002ec4:	fe6e5d03          	lhu	x26,-26(x28)
    80002ec8:	406f8d33          	sub	x26,x31,x6
    80002ecc:	c2a87193          	andi	x3,x16,-982
    80002ed0:	40010cb7          	lui	x25,0x40010
    80002ed4:	019c8cb3          	add	x25,x25,x25
    80002ed8:	100c8c93          	addi	x25,x25,256 # 40010100 <_binary_lab4_test_bin_size+0x3ffefff0>
    80002edc:	fc8cb483          	ld	x9,-56(x25)
    80002ee0:	009ee033          	or	x0,x29,x9
    80002ee4:	9a86f193          	andi	x3,x13,-1624
    80002ee8:	40f10bb3          	sub	x23,x2,x15
    80002eec:	01acee33          	or	x28,x25,x26
    80002ef0:	0014093b          	addw	x18,x8,x1
    80002ef4:	400104b7          	lui	x9,0x40010
    80002ef8:	009484b3          	add	x9,x9,x9
    80002efc:	10048493          	addi	x9,x9,256 # 40010100 <_binary_lab4_test_bin_size+0x3ffefff0>
    80002f00:	ffc49083          	lh	x1,-4(x9)
    80002f04:	401485b3          	sub	x11,x9,x1
    80002f08:	40010137          	lui	x2,0x40010
    80002f0c:	00210133          	add	x2,x2,x2
    80002f10:	0af12e23          	sw	x15,188(x2) # 400100bc <_binary_lab4_test_bin_size+0x3ffeffac>
    80002f14:	412e01b3          	sub	x3,x28,x18
    80002f18:	40010337          	lui	x6,0x40010
    80002f1c:	00630333          	add	x6,x6,x6
    80002f20:	10030313          	addi	x6,x6,256 # 40010100 <_binary_lab4_test_bin_size+0x3ffefff0>
    80002f24:	f8c32803          	lw	x16,-116(x6)
    80002f28:	00480abb          	addw	x21,x16,x4
    80002f2c:	40010db7          	lui	x27,0x40010
    80002f30:	01bd8db3          	add	x27,x27,x27
    80002f34:	016dc103          	lbu	x2,22(x27) # 40010016 <_binary_lab4_test_bin_size+0x3ffeff06>
    80002f38:	41fc00b3          	sub	x1,x24,x31
    80002f3c:	40010637          	lui	x12,0x40010
    80002f40:	00c60633          	add	x12,x12,x12
    80002f44:	07760f23          	sb	x23,126(x12) # 4001007e <_binary_lab4_test_bin_size+0x3ffeff6e>
    80002f48:	01d707bb          	addw	x15,x14,x29
    80002f4c:	400103b7          	lui	x7,0x40010
    80002f50:	007383b3          	add	x7,x7,x7
    80002f54:	0ec39b03          	lh	x22,236(x7) # 400100ec <_binary_lab4_test_bin_size+0x3ffeffdc>
    80002f58:	01eb78b3          	and	x17,x22,x30
    80002f5c:	d02a4793          	xori	x15,x20,-766
    80002f60:	30501c73          	csrrw	x24,mtvec,x0
    80002f64:	40010ab7          	lui	x21,0x40010
    80002f68:	015a8ab3          	add	x21,x21,x21
    80002f6c:	100a8a93          	addi	x21,x21,256 # 40010100 <_binary_lab4_test_bin_size+0x3ffefff0>
    80002f70:	fefa8a83          	lb	x21,-17(x21)
    80002f74:	305c5873          	csrrwi	x16,mtvec,24
    80002f78:	40010837          	lui	x16,0x40010
    80002f7c:	01080833          	add	x16,x16,x16
    80002f80:	10080813          	addi	x16,x16,256 # 40010100 <_binary_lab4_test_bin_size+0x3ffefff0>
    80002f84:	f6982423          	sw	x9,-152(x16)
    80002f88:	343e5c73          	csrrwi	x24,mtval,28
    80002f8c:	40e28c33          	sub	x24,x5,x14
    80002f90:	400100b7          	lui	x1,0x40010
    80002f94:	001080b3          	add	x1,x1,x1
    80002f98:	10008093          	addi	x1,x1,256 # 40010100 <_binary_lab4_test_bin_size+0x3ffefff0>
    80002f9c:	f700b283          	ld	x5,-144(x1)
    80002fa0:	2255829b          	addiw	x5,x11,549
    80002fa4:	40090233          	sub	x4,x18,x0
    80002fa8:	a535839b          	addiw	x7,x11,-1453
    80002fac:	00b86a33          	or	x20,x16,x11
    80002fb0:	400108b7          	lui	x17,0x40010
    80002fb4:	011888b3          	add	x17,x17,x17
    80002fb8:	10088893          	addi	x17,x17,256 # 40010100 <_binary_lab4_test_bin_size+0x3ffefff0>
    80002fbc:	f3a89c03          	lh	x24,-198(x17)
    80002fc0:	40010d37          	lui	x26,0x40010
    80002fc4:	01ad0d33          	add	x26,x26,x26
    80002fc8:	002d0ea3          	sb	x2,29(x26) # 4001001d <_binary_lab4_test_bin_size+0x3ffeff0d>
    80002fcc:	e32f841b          	addiw	x8,x31,-462
    80002fd0:	40010437          	lui	x8,0x40010
    80002fd4:	00840433          	add	x8,x8,x8
    80002fd8:	08f43023          	sd	x15,128(x8) # 40010080 <_binary_lab4_test_bin_size+0x3ffeff70>
    80002fdc:	004ce133          	or	x2,x25,x4
    80002fe0:	40010b37          	lui	x22,0x40010
    80002fe4:	016b0b33          	add	x22,x22,x22
    80002fe8:	09eb2c23          	sw	x30,152(x22) # 40010098 <_binary_lab4_test_bin_size+0x3ffeff88>
    80002fec:	40010db7          	lui	x27,0x40010
    80002ff0:	01bd8db3          	add	x27,x27,x27
    80002ff4:	100d8d93          	addi	x27,x27,256 # 40010100 <_binary_lab4_test_bin_size+0x3ffefff0>
    80002ff8:	f78d8503          	lb	x10,-136(x27)
    80002ffc:	33660913          	addi	x18,x12,822
    80003000:	00c8eeb3          	or	x29,x17,x12
    80003004:	40010bb7          	lui	x23,0x40010
    80003008:	017b8bb3          	add	x23,x23,x23
    8000300c:	092b8b83          	lb	x23,146(x23) # 40010092 <_binary_lab4_test_bin_size+0x3ffeff82>
    80003010:	0175fcb3          	and	x25,x11,x23
    80003014:	400109b7          	lui	x19,0x40010
    80003018:	013989b3          	add	x19,x19,x19
    8000301c:	10098993          	addi	x19,x19,256 # 40010100 <_binary_lab4_test_bin_size+0x3ffefff0>
    80003020:	ffd9b423          	sd	x29,-24(x19)
    80003024:	a1c10693          	addi	x13,x2,-1508
    80003028:	400100b7          	lui	x1,0x40010
    8000302c:	001080b3          	add	x1,x1,x1
    80003030:	10008093          	addi	x1,x1,256 # 40010100 <_binary_lab4_test_bin_size+0x3ffefff0>
    80003034:	f4a09323          	sh	x10,-186(x1)
    80003038:	3414ebf3          	csrrsi	x23,mepc,9
    8000303c:	00396533          	or	x10,x18,x3
    80003040:	402c833b          	subw	x6,x25,x2
    80003044:	0161f3b3          	and	x7,x3,x22
    80003048:	018b0633          	add	x12,x22,x24
    8000304c:	32184f93          	xori	x31,x16,801
    80003050:	40010fb7          	lui	x31,0x40010
    80003054:	01ff8fb3          	add	x31,x31,x31
    80003058:	00efb823          	sd	x14,16(x31) # 40010010 <_binary_lab4_test_bin_size+0x3ffeff00>
    8000305c:	01608cbb          	addw	x25,x1,x22
    80003060:	01d66fb3          	or	x31,x12,x29
    80003064:	0061043b          	addw	x8,x2,x6
    80003068:	40010437          	lui	x8,0x40010
    8000306c:	00840433          	add	x8,x8,x8
    80003070:	10040413          	addi	x8,x8,256 # 40010100 <_binary_lab4_test_bin_size+0x3ffefff0>
    80003074:	f1142c23          	sw	x17,-232(x8)
    80003078:	7d1c4513          	xori	x10,x24,2001
    8000307c:	411489bb          	subw	x19,x9,x17
    80003080:	63248d93          	addi	x27,x9,1586
    80003084:	40010a37          	lui	x20,0x40010
    80003088:	014a0a33          	add	x20,x20,x20
    8000308c:	100a0a13          	addi	x20,x20,256 # 40010100 <_binary_lab4_test_bin_size+0x3ffefff0>
    80003090:	f84a2b83          	lw	x23,-124(x20)
    80003094:	b82bcf13          	xori	x30,x23,-1150
    80003098:	400102b7          	lui	x5,0x40010
    8000309c:	005282b3          	add	x5,x5,x5
    800030a0:	10028293          	addi	x5,x5,256 # 40010100 <_binary_lab4_test_bin_size+0x3ffefff0>
    800030a4:	f382d983          	lhu	x19,-200(x5)
    800030a8:	013078b3          	and	x17,x0,x19
    800030ac:	e4fb6c13          	ori	x24,x22,-433
    800030b0:	01646933          	or	x18,x8,x22
    800030b4:	342fecf3          	csrrsi	x25,mcause,31
    800030b8:	40878833          	sub	x16,x15,x8
    800030bc:	b65cfb93          	andi	x23,x25,-1179
    800030c0:	2139cd93          	xori	x27,x19,531
    800030c4:	40010d37          	lui	x26,0x40010
    800030c8:	01ad0d33          	add	x26,x26,x26
    800030cc:	05cd2f03          	lw	x30,92(x26) # 4001005c <_binary_lab4_test_bin_size+0x3ffeff4c>
    800030d0:	13df029b          	addiw	x5,x30,317
    800030d4:	400101b7          	lui	x3,0x40010
    800030d8:	003181b3          	add	x3,x3,x3
    800030dc:	0631c803          	lbu	x16,99(x3) # 40010063 <_binary_lab4_test_bin_size+0x3ffeff53>
    800030e0:	410f85bb          	subw	x11,x31,x16
    800030e4:	410384bb          	subw	x9,x7,x16
    800030e8:	400102b7          	lui	x5,0x40010
    800030ec:	005282b3          	add	x5,x5,x5
    800030f0:	10028293          	addi	x5,x5,256 # 40010100 <_binary_lab4_test_bin_size+0x3ffefff0>
    800030f4:	f4a2d403          	lhu	x8,-182(x5)
    800030f8:	41408133          	sub	x2,x1,x20
    800030fc:	40010db7          	lui	x27,0x40010
    80003100:	01bd8db3          	add	x27,x27,x27
    80003104:	0ced9083          	lh	x1,206(x27) # 400100ce <_binary_lab4_test_bin_size+0x3ffeffbe>
    80003108:	c6090093          	addi	x1,x18,-928
    8000310c:	400108b7          	lui	x17,0x40010
    80003110:	011888b3          	add	x17,x17,x17
    80003114:	0a48a623          	sw	x4,172(x17) # 400100ac <_binary_lab4_test_bin_size+0x3ffeff9c>
    80003118:	30436673          	csrrsi	x12,mie,6
    8000311c:	40010837          	lui	x16,0x40010
    80003120:	01080833          	add	x16,x16,x16
    80003124:	10080813          	addi	x16,x16,256 # 40010100 <_binary_lab4_test_bin_size+0x3ffefff0>
    80003128:	f5c80723          	sb	x28,-178(x16)
    8000312c:	84200a9b          	addiw	x21,x0,-1982
    80003130:	41fd8233          	sub	x4,x27,x31
    80003134:	40010ab7          	lui	x21,0x40010
    80003138:	015a8ab3          	add	x21,x21,x21
    8000313c:	0c0aca03          	lbu	x20,192(x21) # 400100c0 <_binary_lab4_test_bin_size+0x3ffeffb0>
    80003140:	013c8a3b          	addw	x20,x25,x19
    80003144:	400100b7          	lui	x1,0x40010
    80003148:	001080b3          	add	x1,x1,x1
    8000314c:	10008093          	addi	x1,x1,256 # 40010100 <_binary_lab4_test_bin_size+0x3ffefff0>
    80003150:	fae09623          	sh	x14,-84(x1)
    80003154:	48cb7113          	andi	x2,x22,1164
    80003158:	34186c73          	csrrsi	x24,mepc,16
    8000315c:	305fd1f3          	csrrwi	x3,mtvec,31
    80003160:	dffe8313          	addi	x6,x29,-513
    80003164:	400107b7          	lui	x15,0x40010
    80003168:	00f787b3          	add	x15,x15,x15
    8000316c:	10078793          	addi	x15,x15,256 # 40010100 <_binary_lab4_test_bin_size+0x3ffefff0>
    80003170:	f387bf03          	ld	x30,-200(x15)
    80003174:	513f7593          	andi	x11,x30,1299
    80003178:	21377f13          	andi	x30,x14,531
    8000317c:	013a88b3          	add	x17,x21,x19
    80003180:	40010d37          	lui	x26,0x40010
    80003184:	01ad0d33          	add	x26,x26,x26
    80003188:	100d0d13          	addi	x26,x26,256 # 40010100 <_binary_lab4_test_bin_size+0x3ffefff0>
    8000318c:	f5fd4d03          	lbu	x26,-161(x26)
    80003190:	40010937          	lui	x18,0x40010
    80003194:	01290933          	add	x18,x18,x18
    80003198:	068907a3          	sb	x8,111(x18) # 4001006f <_binary_lab4_test_bin_size+0x3ffeff5f>
    8000319c:	400101b7          	lui	x3,0x40010
    800031a0:	003181b3          	add	x3,x3,x3
    800031a4:	0001bd83          	ld	x27,0(x3) # 40010000 <_binary_lab4_test_bin_size+0x3ffefef0>
    800031a8:	01bd8533          	add	x10,x27,x27
    800031ac:	40010eb7          	lui	x29,0x40010
    800031b0:	01de8eb3          	add	x29,x29,x29
    800031b4:	100e8e93          	addi	x29,x29,256 # 40010100 <_binary_lab4_test_bin_size+0x3ffefff0>
    800031b8:	f77e8e03          	lb	x28,-137(x29)
    800031bc:	01a4f633          	and	x12,x9,x26
    800031c0:	01e64833          	xor	x16,x12,x30
    800031c4:	344afd73          	csrrci	x26,mip,21
    800031c8:	41ee8c33          	sub	x24,x29,x30
    800031cc:	00ccccb3          	xor	x25,x25,x12
    800031d0:	40010eb7          	lui	x29,0x40010
    800031d4:	01de8eb3          	add	x29,x29,x29
    800031d8:	0a4eef83          	lwu	x31,164(x29) # 400100a4 <_binary_lab4_test_bin_size+0x3ffeff94>
    800031dc:	000c0fb3          	add	x31,x24,x0
    800031e0:	00187733          	and	x14,x16,x1
    800031e4:	6fcc0e1b          	addiw	x28,x24,1788
    800031e8:	40010837          	lui	x16,0x40010
    800031ec:	01080833          	add	x16,x16,x16
    800031f0:	0a183823          	sd	x1,176(x16) # 400100b0 <_binary_lab4_test_bin_size+0x3ffeffa0>
    800031f4:	009b4ab3          	xor	x21,x22,x9
    800031f8:	95f60b1b          	addiw	x22,x12,-1697
    800031fc:	416582b3          	sub	x5,x11,x22
    80003200:	400100b7          	lui	x1,0x40010
    80003204:	001080b3          	add	x1,x1,x1
    80003208:	0600bf03          	ld	x30,96(x1) # 40010060 <_binary_lab4_test_bin_size+0x3ffeff50>
    8000320c:	01ec08bb          	addw	x17,x24,x30
    80003210:	400107b7          	lui	x15,0x40010
    80003214:	00f787b3          	add	x15,x15,x15
    80003218:	10078793          	addi	x15,x15,256 # 40010100 <_binary_lab4_test_bin_size+0x3ffefff0>
    8000321c:	fa0783a3          	sb	x0,-89(x15)
    80003220:	410901bb          	subw	x3,x18,x16
    80003224:	343791f3          	csrrw	x3,mtval,x15
    80003228:	343f9cf3          	csrrw	x25,mtval,x31
    8000322c:	b0477f93          	andi	x31,x14,-1276
    80003230:	40010cb7          	lui	x25,0x40010
    80003234:	019c8cb3          	add	x25,x25,x25
    80003238:	100c8c93          	addi	x25,x25,256 # 40010100 <_binary_lab4_test_bin_size+0x3ffefff0>
    8000323c:	faaccc83          	lbu	x25,-86(x25)
    80003240:	419c0e3b          	subw	x28,x24,x25
    80003244:	30595373          	csrrwi	x6,mtvec,18
    80003248:	40010db7          	lui	x27,0x40010
    8000324c:	01bd8db3          	add	x27,x27,x27
    80003250:	100d8d93          	addi	x27,x27,256 # 40010100 <_binary_lab4_test_bin_size+0x3ffefff0>
    80003254:	fc0db683          	ld	x13,-64(x27)
    80003258:	00dc843b          	addw	x8,x25,x13
    8000325c:	341feff3          	csrrsi	x31,mepc,31
    80003260:	40010237          	lui	x4,0x40010
    80003264:	00420233          	add	x4,x4,x4
    80003268:	10020213          	addi	x4,x4,256 # 40010100 <_binary_lab4_test_bin_size+0x3ffefff0>
    8000326c:	fe921123          	sh	x9,-30(x4) # ffffffffffffffe2 <_binary_lab4_test_bin_end+0xffffffff7ffdfed2>
    80003270:	b1418813          	addi	x16,x3,-1260
    80003274:	0109ebb3          	or	x23,x19,x16
    80003278:	343863f3          	csrrsi	x7,mtval,16
    8000327c:	40010537          	lui	x10,0x40010
    80003280:	00a50533          	add	x10,x10,x10
    80003284:	0e853f83          	ld	x31,232(x10) # 400100e8 <_binary_lab4_test_bin_size+0x3ffeffd8>
    80003288:	50198f9b          	addiw	x31,x19,1281
    8000328c:	d372829b          	addiw	x5,x5,-713
    80003290:	40010a37          	lui	x20,0x40010
    80003294:	014a0a33          	add	x20,x20,x20
    80003298:	100a0a13          	addi	x20,x20,256 # 40010100 <_binary_lab4_test_bin_size+0x3ffefff0>
    8000329c:	faea2823          	sw	x14,-80(x20)
    800032a0:	40010937          	lui	x18,0x40010
    800032a4:	01290933          	add	x18,x18,x18
    800032a8:	10090913          	addi	x18,x18,256 # 40010100 <_binary_lab4_test_bin_size+0x3ffefff0>
    800032ac:	ff092883          	lw	x17,-16(x18)
    800032b0:	4cb80893          	addi	x17,x16,1227
    800032b4:	400105b7          	lui	x11,0x40010
    800032b8:	00b585b3          	add	x11,x11,x11
    800032bc:	10058593          	addi	x11,x11,256 # 40010100 <_binary_lab4_test_bin_size+0x3ffefff0>
    800032c0:	f505be83          	ld	x29,-176(x11)
    800032c4:	642ece93          	xori	x29,x29,1602
    800032c8:	3430d473          	csrrwi	x8,mtval,1
    800032cc:	40010db7          	lui	x27,0x40010
    800032d0:	01bd8db3          	add	x27,x27,x27
    800032d4:	0d0d8783          	lb	x15,208(x27) # 400100d0 <_binary_lab4_test_bin_size+0x3ffeffc0>
    800032d8:	1147c793          	xori	x15,x15,276
    800032dc:	400105b7          	lui	x11,0x40010
    800032e0:	00b585b3          	add	x11,x11,x11
    800032e4:	0805bd83          	ld	x27,128(x11) # 40010080 <_binary_lab4_test_bin_size+0x3ffeff70>
    800032e8:	40010f37          	lui	x30,0x40010
    800032ec:	01ef0f33          	add	x30,x30,x30
    800032f0:	054f6d03          	lwu	x26,84(x30) # 40010054 <_binary_lab4_test_bin_size+0x3ffeff44>
    800032f4:	17fd6d13          	ori	x26,x26,383
    800032f8:	25d30c9b          	addiw	x25,x6,605
    800032fc:	400100b7          	lui	x1,0x40010
    80003300:	001080b3          	add	x1,x1,x1
    80003304:	0940e903          	lwu	x18,148(x1) # 40010094 <_binary_lab4_test_bin_size+0x3ffeff84>
    80003308:	5546ef93          	ori	x31,x13,1364
    8000330c:	61036613          	ori	x12,x6,1552
    80003310:	01c54cb3          	xor	x25,x10,x28
    80003314:	304c7ff3          	csrrci	x31,mie,24
    80003318:	40010b37          	lui	x22,0x40010
    8000331c:	016b0b33          	add	x22,x22,x22
    80003320:	04fb1d23          	sh	x15,90(x22) # 4001005a <_binary_lab4_test_bin_size+0x3ffeff4a>
    80003324:	deeccf93          	xori	x31,x25,-530
    80003328:	305dfd73          	csrrci	x26,mtvec,27
    8000332c:	016a4033          	xor	x0,x20,x22
    80003330:	dd260e13          	addi	x28,x12,-558
    80003334:	4d917393          	andi	x7,x2,1241
    80003338:	40010437          	lui	x8,0x40010
    8000333c:	00840433          	add	x8,x8,x8
    80003340:	10040413          	addi	x8,x8,256 # 40010100 <_binary_lab4_test_bin_size+0x3ffefff0>
    80003344:	ffa42823          	sw	x26,-16(x8)
    80003348:	344ae7f3          	csrrsi	x15,mip,21
    8000334c:	3433e573          	csrrsi	x10,mtval,7
    80003350:	34265273          	csrrwi	x4,mcause,12
    80003354:	9a966013          	ori	x0,x12,-1623
    80003358:	400102b7          	lui	x5,0x40010
    8000335c:	005282b3          	add	x5,x5,x5
    80003360:	01428183          	lb	x3,20(x5) # 40010014 <_binary_lab4_test_bin_size+0x3ffeff04>
    80003364:	41a18c3b          	subw	x24,x3,x26
    80003368:	400105b7          	lui	x11,0x40010
    8000336c:	00b585b3          	add	x11,x11,x11
    80003370:	10058593          	addi	x11,x11,256 # 40010100 <_binary_lab4_test_bin_size+0x3ffefff0>
    80003374:	f285ea83          	lwu	x21,-216(x11)
    80003378:	012a8333          	add	x6,x21,x18
    8000337c:	40010f37          	lui	x30,0x40010
    80003380:	01ef0f33          	add	x30,x30,x30
    80003384:	086f1f83          	lh	x31,134(x30) # 40010086 <_binary_lab4_test_bin_size+0x3ffeff76>
    80003388:	40010837          	lui	x16,0x40010
    8000338c:	01080833          	add	x16,x16,x16
    80003390:	00b82a23          	sw	x11,20(x16) # 40010014 <_binary_lab4_test_bin_size+0x3ffeff04>
    80003394:	34367ff3          	csrrci	x31,mtval,12
    80003398:	40010537          	lui	x10,0x40010
    8000339c:	00a50533          	add	x10,x10,x10
    800033a0:	10050513          	addi	x10,x10,256 # 40010100 <_binary_lab4_test_bin_size+0x3ffefff0>
    800033a4:	ff855f03          	lhu	x30,-8(x10)
    800033a8:	40010537          	lui	x10,0x40010
    800033ac:	00a50533          	add	x10,x10,x10
    800033b0:	01851c23          	sh	x24,24(x10) # 40010018 <_binary_lab4_test_bin_size+0x3ffeff08>
    800033b4:	400105b7          	lui	x11,0x40010
    800033b8:	00b585b3          	add	x11,x11,x11
    800033bc:	10058593          	addi	x11,x11,256 # 40010100 <_binary_lab4_test_bin_size+0x3ffefff0>
    800033c0:	f755b423          	sd	x21,-152(x11)
    800033c4:	cd7f4b93          	xori	x23,x30,-809
    800033c8:	40010837          	lui	x16,0x40010
    800033cc:	01080833          	add	x16,x16,x16
    800033d0:	10080813          	addi	x16,x16,256 # 40010100 <_binary_lab4_test_bin_size+0x3ffefff0>
    800033d4:	ff683823          	sd	x22,-16(x16)
    800033d8:	40010db7          	lui	x27,0x40010
    800033dc:	01bd8db3          	add	x27,x27,x27
    800033e0:	0a2dd483          	lhu	x9,162(x27) # 400100a2 <_binary_lab4_test_bin_size+0x3ffeff92>
    800033e4:	3714e493          	ori	x9,x9,881
    800033e8:	00d9e1b3          	or	x3,x19,x13
    800033ec:	8a494513          	xori	x10,x18,-1884
    800033f0:	00874b93          	xori	x23,x14,8
    800033f4:	01fff4b3          	and	x9,x31,x31
    800033f8:	980e0f93          	addi	x31,x28,-1664
    800033fc:	40aa0fb3          	sub	x31,x20,x10
    80003400:	017a4e33          	xor	x28,x20,x23
    80003404:	e5c50a13          	addi	x20,x10,-420
    80003408:	40010837          	lui	x16,0x40010
    8000340c:	01080833          	add	x16,x16,x16
    80003410:	05082223          	sw	x16,68(x16) # 40010044 <_binary_lab4_test_bin_size+0x3ffeff34>
    80003414:	400104b7          	lui	x9,0x40010
    80003418:	009484b3          	add	x9,x9,x9
    8000341c:	10048493          	addi	x9,x9,256 # 40010100 <_binary_lab4_test_bin_size+0x3ffefff0>
    80003420:	f46484a3          	sb	x6,-183(x9)
    80003424:	01550eb3          	add	x29,x10,x21
    80003428:	30565d73          	csrrwi	x26,mtvec,12
    8000342c:	3047da73          	csrrwi	x20,mie,15
    80003430:	40010737          	lui	x14,0x40010
    80003434:	00e70733          	add	x14,x14,x14
    80003438:	10070713          	addi	x14,x14,256 # 40010100 <_binary_lab4_test_bin_size+0x3ffefff0>
    8000343c:	fdc72703          	lw	x14,-36(x14)
    80003440:	40010fb7          	lui	x31,0x40010
    80003444:	01ff8fb3          	add	x31,x31,x31
    80003448:	100f8f93          	addi	x31,x31,256 # 40010100 <_binary_lab4_test_bin_size+0x3ffefff0>
    8000344c:	f9cfaf83          	lw	x31,-100(x31)
    80003450:	416f8f33          	sub	x30,x31,x22
    80003454:	30529bf3          	csrrw	x23,mtvec,x5
    80003458:	400108b7          	lui	x17,0x40010
    8000345c:	011888b3          	add	x17,x17,x17
    80003460:	10088893          	addi	x17,x17,256 # 40010100 <_binary_lab4_test_bin_size+0x3ffefff0>
    80003464:	fc489a83          	lh	x21,-60(x17)
    80003468:	3434ed73          	csrrsi	x26,mtval,9
    8000346c:	ba588993          	addi	x19,x17,-1115
    80003470:	30586a73          	csrrsi	x20,mtvec,16
    80003474:	305bd1f3          	csrrwi	x3,mtvec,23
    80003478:	400109b7          	lui	x19,0x40010
    8000347c:	013989b3          	add	x19,x19,x19
    80003480:	10098993          	addi	x19,x19,256 # 40010100 <_binary_lab4_test_bin_size+0x3ffefff0>
    80003484:	fa09e003          	lwu	x0,-96(x19)
    80003488:	00ad003b          	addw	x0,x26,x10
    8000348c:	40010e37          	lui	x28,0x40010
    80003490:	01ce0e33          	add	x28,x28,x28
    80003494:	100e0e13          	addi	x28,x28,256 # 40010100 <_binary_lab4_test_bin_size+0x3ffefff0>
    80003498:	fd8e6e03          	lwu	x28,-40(x28)
    8000349c:	cb0e0f1b          	addiw	x30,x28,-848
    800034a0:	016847b3          	xor	x15,x16,x22
    800034a4:	40ba8533          	sub	x10,x21,x11
    800034a8:	0ef66d93          	ori	x27,x12,239
    800034ac:	40010cb7          	lui	x25,0x40010
    800034b0:	019c8cb3          	add	x25,x25,x25
    800034b4:	01bc83a3          	sb	x27,7(x25) # 40010007 <_binary_lab4_test_bin_size+0x3ffefef7>
    800034b8:	305271f3          	csrrci	x3,mtvec,4
    800034bc:	00490933          	add	x18,x18,x4
    800034c0:	400102b7          	lui	x5,0x40010
    800034c4:	005282b3          	add	x5,x5,x5
    800034c8:	10028293          	addi	x5,x5,256 # 40010100 <_binary_lab4_test_bin_size+0x3ffefff0>
    800034cc:	fda28203          	lb	x4,-38(x5)
    800034d0:	404d0c33          	sub	x24,x26,x4
    800034d4:	405f06bb          	subw	x13,x30,x5
    800034d8:	343f7173          	csrrci	x2,mtval,30
    800034dc:	40010637          	lui	x12,0x40010
    800034e0:	00c60633          	add	x12,x12,x12
    800034e4:	10060613          	addi	x12,x12,256 # 40010100 <_binary_lab4_test_bin_size+0x3ffefff0>
    800034e8:	f8061f83          	lh	x31,-128(x12)
    800034ec:	edcf8f1b          	addiw	x30,x31,-292
    800034f0:	305a9373          	csrrw	x6,mtvec,x21
    800034f4:	34319e73          	csrrw	x28,mtval,x3
    800034f8:	01be8b33          	add	x22,x29,x27
    800034fc:	009481b3          	add	x3,x9,x9
    80003500:	40010837          	lui	x16,0x40010
    80003504:	01080833          	add	x16,x16,x16
    80003508:	10080813          	addi	x16,x16,256 # 40010100 <_binary_lab4_test_bin_size+0x3ffefff0>
    8000350c:	f7280d23          	sb	x18,-134(x16)
    80003510:	34341df3          	csrrw	x27,mtval,x8
    80003514:	40010bb7          	lui	x23,0x40010
    80003518:	017b8bb3          	add	x23,x23,x23
    8000351c:	100b8b93          	addi	x23,x23,256 # 40010100 <_binary_lab4_test_bin_size+0x3ffefff0>
    80003520:	fc8bc983          	lbu	x19,-56(x23)
    80003524:	0519f193          	andi	x3,x19,81
    80003528:	40010eb7          	lui	x29,0x40010
    8000352c:	01de8eb3          	add	x29,x29,x29
    80003530:	100e8e93          	addi	x29,x29,256 # 40010100 <_binary_lab4_test_bin_size+0x3ffefff0>
    80003534:	f84e8f83          	lb	x31,-124(x29)
    80003538:	589fea13          	ori	x20,x31,1417
    8000353c:	40010bb7          	lui	x23,0x40010
    80003540:	017b8bb3          	add	x23,x23,x23
    80003544:	100b8b93          	addi	x23,x23,256 # 40010100 <_binary_lab4_test_bin_size+0x3ffefff0>
    80003548:	fd8be403          	lwu	x8,-40(x23)
    8000354c:	00fc7433          	and	x8,x24,x15
    80003550:	400a803b          	subw	x0,x21,x0
    80003554:	006c0d33          	add	x26,x24,x6
    80003558:	ce790f1b          	addiw	x30,x18,-793
    8000355c:	400506b3          	sub	x13,x10,x0
    80003560:	40010737          	lui	x14,0x40010
    80003564:	00e70733          	add	x14,x14,x14
    80003568:	03571923          	sh	x21,50(x14) # 40010032 <_binary_lab4_test_bin_size+0x3ffeff22>
    8000356c:	400103b7          	lui	x7,0x40010
    80003570:	007383b3          	add	x7,x7,x7
    80003574:	0193cb03          	lbu	x22,25(x7) # 40010019 <_binary_lab4_test_bin_size+0x3ffeff09>
    80003578:	956e069b          	addiw	x13,x28,-1706
    8000357c:	400105b7          	lui	x11,0x40010
    80003580:	00b585b3          	add	x11,x11,x11
    80003584:	06859b23          	sh	x8,118(x11) # 40010076 <_binary_lab4_test_bin_size+0x3ffeff66>
    80003588:	0e87091b          	addiw	x18,x14,232
    8000358c:	400107b7          	lui	x15,0x40010
    80003590:	00f787b3          	add	x15,x15,x15
    80003594:	0bd7c203          	lbu	x4,189(x15) # 400100bd <_binary_lab4_test_bin_size+0x3ffeffad>
    80003598:	40010137          	lui	x2,0x40010
    8000359c:	00210133          	add	x2,x2,x2
    800035a0:	10010113          	addi	x2,x2,256 # 40010100 <_binary_lab4_test_bin_size+0x3ffefff0>
    800035a4:	f1a10ca3          	sb	x26,-231(x2)
    800035a8:	400100b7          	lui	x1,0x40010
    800035ac:	001080b3          	add	x1,x1,x1
    800035b0:	10008093          	addi	x1,x1,256 # 40010100 <_binary_lab4_test_bin_size+0x3ffefff0>
    800035b4:	fac0aa23          	sw	x12,-76(x1)
    800035b8:	40010637          	lui	x12,0x40010
    800035bc:	00c60633          	add	x12,x12,x12
    800035c0:	0f161023          	sh	x17,224(x12) # 400100e0 <_binary_lab4_test_bin_size+0x3ffeffd0>
    800035c4:	40010637          	lui	x12,0x40010
    800035c8:	00c60633          	add	x12,x12,x12
    800035cc:	0d662223          	sw	x22,196(x12) # 400100c4 <_binary_lab4_test_bin_size+0x3ffeffb4>
    800035d0:	40010d37          	lui	x26,0x40010
    800035d4:	01ad0d33          	add	x26,x26,x26
    800035d8:	0ccd4b03          	lbu	x22,204(x26) # 400100cc <_binary_lab4_test_bin_size+0x3ffeffbc>
    800035dc:	43f17313          	andi	x6,x2,1087
    800035e0:	40010137          	lui	x2,0x40010
    800035e4:	00210133          	add	x2,x2,x2
    800035e8:	02d13c23          	sd	x13,56(x2) # 40010038 <_binary_lab4_test_bin_size+0x3ffeff28>
    800035ec:	002c8433          	add	x8,x25,x2
    800035f0:	40010437          	lui	x8,0x40010
    800035f4:	00840433          	add	x8,x8,x8
    800035f8:	0e043903          	ld	x18,224(x8) # 400100e0 <_binary_lab4_test_bin_size+0x3ffeffd0>
    800035fc:	400100b7          	lui	x1,0x40010
    80003600:	001080b3          	add	x1,x1,x1
    80003604:	0460d483          	lhu	x9,70(x1) # 40010046 <_binary_lab4_test_bin_size+0x3ffeff36>
    80003608:	3428d573          	csrrwi	x10,mcause,17
    8000360c:	400107b7          	lui	x15,0x40010
    80003610:	00f787b3          	add	x15,x15,x15
    80003614:	10078793          	addi	x15,x15,256 # 40010100 <_binary_lab4_test_bin_size+0x3ffefff0>
    80003618:	fa07bb83          	ld	x23,-96(x15)
    8000361c:	01290bb3          	add	x23,x18,x18
    80003620:	dc5afd93          	andi	x27,x21,-571
    80003624:	006f8833          	add	x16,x31,x6
    80003628:	400103b7          	lui	x7,0x40010
    8000362c:	007383b3          	add	x7,x7,x7
    80003630:	10038393          	addi	x7,x7,256 # 40010100 <_binary_lab4_test_bin_size+0x3ffefff0>
    80003634:	fe039583          	lh	x11,-32(x7)
    80003638:	002b05b3          	add	x11,x22,x2
    8000363c:	40010137          	lui	x2,0x40010
    80003640:	00210133          	add	x2,x2,x2
    80003644:	10010113          	addi	x2,x2,256 # 40010100 <_binary_lab4_test_bin_size+0x3ffefff0>
    80003648:	f7c11903          	lh	x18,-132(x2)
    8000364c:	400109b7          	lui	x19,0x40010
    80003650:	013989b3          	add	x19,x19,x19
    80003654:	10098993          	addi	x19,x19,256 # 40010100 <_binary_lab4_test_bin_size+0x3ffefff0>
    80003658:	f389ed83          	lwu	x27,-200(x19)
    8000365c:	d8ec6593          	ori	x11,x24,-626
    80003660:	343f6373          	csrrsi	x6,mtval,30
    80003664:	30f1ee93          	ori	x29,x3,783
    80003668:	40010337          	lui	x6,0x40010
    8000366c:	00630333          	add	x6,x6,x6
    80003670:	04833b03          	ld	x22,72(x6) # 40010048 <_binary_lab4_test_bin_size+0x3ffeff38>
    80003674:	4183893b          	subw	x18,x7,x24
    80003678:	40010537          	lui	x10,0x40010
    8000367c:	00a50533          	add	x10,x10,x10
    80003680:	0f350303          	lb	x6,243(x10) # 400100f3 <_binary_lab4_test_bin_size+0x3ffeffe3>
    80003684:	4161033b          	subw	x6,x2,x22
    80003688:	40010f37          	lui	x30,0x40010
    8000368c:	01ef0f33          	add	x30,x30,x30
    80003690:	09ef0ea3          	sb	x30,157(x30) # 4001009d <_binary_lab4_test_bin_size+0x3ffeff8d>
    80003694:	f78f6913          	ori	x18,x30,-136
    80003698:	40488db3          	sub	x27,x17,x4
    8000369c:	40010d37          	lui	x26,0x40010
    800036a0:	01ad0d33          	add	x26,x26,x26
    800036a4:	04ed3823          	sd	x14,80(x26) # 40010050 <_binary_lab4_test_bin_size+0x3ffeff40>
    800036a8:	34385773          	csrrwi	x14,mtval,16
    800036ac:	40010337          	lui	x6,0x40010
    800036b0:	00630333          	add	x6,x6,x6
    800036b4:	10030313          	addi	x6,x6,256 # 40010100 <_binary_lab4_test_bin_size+0x3ffefff0>
    800036b8:	f2732a23          	sw	x7,-204(x6)
    800036bc:	40ac86b3          	sub	x13,x25,x10
    800036c0:	304ff573          	csrrci	x10,mie,31
    800036c4:	400109b7          	lui	x19,0x40010
    800036c8:	013989b3          	add	x19,x19,x19
    800036cc:	10098993          	addi	x19,x19,256 # 40010100 <_binary_lab4_test_bin_size+0x3ffefff0>
    800036d0:	fd89a083          	lw	x1,-40(x19)
    800036d4:	304c7cf3          	csrrci	x25,mie,24
    800036d8:	7aea7693          	andi	x13,x20,1966
    800036dc:	400109b7          	lui	x19,0x40010
    800036e0:	013989b3          	add	x19,x19,x19
    800036e4:	0e49ea03          	lwu	x20,228(x19) # 400100e4 <_binary_lab4_test_bin_size+0x3ffeffd4>
    800036e8:	400104b7          	lui	x9,0x40010
    800036ec:	009484b3          	add	x9,x9,x9
    800036f0:	09e49a23          	sh	x30,148(x9) # 40010094 <_binary_lab4_test_bin_size+0x3ffeff84>
    800036f4:	40010437          	lui	x8,0x40010
    800036f8:	00840433          	add	x8,x8,x8
    800036fc:	09043a03          	ld	x20,144(x8) # 40010090 <_binary_lab4_test_bin_size+0x3ffeff80>
    80003700:	400105b7          	lui	x11,0x40010
    80003704:	00b585b3          	add	x11,x11,x11
    80003708:	0105b803          	ld	x16,16(x11) # 40010010 <_binary_lab4_test_bin_size+0x3ffeff00>
    8000370c:	00e64833          	xor	x16,x12,x14
    80003710:	d6527293          	andi	x5,x4,-667
    80003714:	018a68b3          	or	x17,x20,x24
    80003718:	30407e73          	csrrci	x28,mie,0
    8000371c:	40010737          	lui	x14,0x40010
    80003720:	00e70733          	add	x14,x14,x14
    80003724:	07d72023          	sw	x29,96(x14) # 40010060 <_binary_lab4_test_bin_size+0x3ffeff50>
    80003728:	40830b3b          	subw	x22,x6,x8
    8000372c:	002209bb          	addw	x19,x4,x2
    80003730:	b0318b1b          	addiw	x22,x3,-1277
    80003734:	304be073          	csrsi	mie,23
    80003738:	305de8f3          	csrrsi	x17,mtvec,27
    8000373c:	400104b7          	lui	x9,0x40010
    80003740:	009484b3          	add	x9,x9,x9
    80003744:	0664d483          	lhu	x9,102(x9) # 40010066 <_binary_lab4_test_bin_size+0x3ffeff56>
    80003748:	400103b7          	lui	x7,0x40010
    8000374c:	007383b3          	add	x7,x7,x7
    80003750:	10038393          	addi	x7,x7,256 # 40010100 <_binary_lab4_test_bin_size+0x3ffefff0>
    80003754:	fb13b423          	sd	x17,-88(x7)
    80003758:	011d40b3          	xor	x1,x26,x17
    8000375c:	40010937          	lui	x18,0x40010
    80003760:	01290933          	add	x18,x18,x18
    80003764:	05693023          	sd	x22,64(x18) # 40010040 <_binary_lab4_test_bin_size+0x3ffeff30>
    80003768:	00de8233          	add	x4,x29,x13
    8000376c:	00a3fbb3          	and	x23,x7,x10
    80003770:	400106b7          	lui	x13,0x40010
    80003774:	00d686b3          	add	x13,x13,x13
    80003778:	10068693          	addi	x13,x13,256 # 40010100 <_binary_lab4_test_bin_size+0x3ffefff0>
    8000377c:	f3c6e583          	lwu	x11,-196(x13)
    80003780:	400102b7          	lui	x5,0x40010
    80003784:	005282b3          	add	x5,x5,x5
    80003788:	0912cb03          	lbu	x22,145(x5) # 40010091 <_binary_lab4_test_bin_size+0x3ffeff81>
    8000378c:	00d4cb33          	xor	x22,x9,x13
    80003790:	064fc893          	xori	x17,x31,100
    80003794:	fd2c4e13          	xori	x28,x24,-46
    80003798:	00e68ab3          	add	x21,x13,x14
    8000379c:	29befb93          	andi	x23,x29,667
    800037a0:	44008d13          	addi	x26,x1,1088
    800037a4:	01b60433          	add	x8,x12,x27
    800037a8:	343ad4f3          	csrrwi	x9,mtval,21
    800037ac:	34329ef3          	csrrw	x29,mtval,x5
    800037b0:	400101b7          	lui	x3,0x40010
    800037b4:	003181b3          	add	x3,x3,x3
    800037b8:	0261b023          	sd	x6,32(x3) # 40010020 <_binary_lab4_test_bin_size+0x3ffeff10>
    800037bc:	17734b93          	xori	x23,x6,375
    800037c0:	5b2b0293          	addi	x5,x22,1458
    800037c4:	40010637          	lui	x12,0x40010
    800037c8:	00c60633          	add	x12,x12,x12
    800037cc:	10060613          	addi	x12,x12,256 # 40010100 <_binary_lab4_test_bin_size+0x3ffefff0>
    800037d0:	fb866e03          	lwu	x28,-72(x12)
    800037d4:	091e039b          	addiw	x7,x28,145
    800037d8:	00d3083b          	addw	x16,x6,x13
    800037dc:	40010237          	lui	x4,0x40010
    800037e0:	00420233          	add	x4,x4,x4
    800037e4:	10020213          	addi	x4,x4,256 # 40010100 <_binary_lab4_test_bin_size+0x3ffefff0>
    800037e8:	ff024403          	lbu	x8,-16(x4) # fffffffffffffff0 <_binary_lab4_test_bin_end+0xffffffff7ffdfee0>
    800037ec:	400105b7          	lui	x11,0x40010
    800037f0:	00b585b3          	add	x11,x11,x11
    800037f4:	00c5ae23          	sw	x12,28(x11) # 4001001c <_binary_lab4_test_bin_size+0x3ffeff0c>
    800037f8:	400102b7          	lui	x5,0x40010
    800037fc:	005282b3          	add	x5,x5,x5
    80003800:	10028293          	addi	x5,x5,256 # 40010100 <_binary_lab4_test_bin_size+0x3ffefff0>
    80003804:	fc42d703          	lhu	x14,-60(x5)
    80003808:	00edf633          	and	x12,x27,x14
    8000380c:	34141cf3          	csrrw	x25,mepc,x8
    80003810:	400103b7          	lui	x7,0x40010
    80003814:	007383b3          	add	x7,x7,x7
    80003818:	10038393          	addi	x7,x7,256 # 40010100 <_binary_lab4_test_bin_size+0x3ffefff0>
    8000381c:	fc43dc83          	lhu	x25,-60(x7)
    80003820:	40010f37          	lui	x30,0x40010
    80003824:	01ef0f33          	add	x30,x30,x30
    80003828:	100f0f13          	addi	x30,x30,256 # 40010100 <_binary_lab4_test_bin_size+0x3ffefff0>
    8000382c:	f40f3303          	ld	x6,-192(x30)
    80003830:	ef406993          	ori	x19,x0,-268
    80003834:	41c10e3b          	subw	x28,x2,x28
    80003838:	11dbf313          	andi	x6,x23,285
    8000383c:	41eb073b          	subw	x14,x22,x30
    80003840:	3045d8f3          	csrrwi	x17,mie,11
    80003844:	167d8c93          	addi	x25,x27,359
    80003848:	400104b7          	lui	x9,0x40010
    8000384c:	009484b3          	add	x9,x9,x9
    80003850:	10048493          	addi	x9,x9,256 # 40010100 <_binary_lab4_test_bin_size+0x3ffefff0>
    80003854:	f8c4ea03          	lwu	x20,-116(x9)
    80003858:	40010d37          	lui	x26,0x40010
    8000385c:	01ad0d33          	add	x26,x26,x26
    80003860:	07ad2a23          	sw	x26,116(x26) # 40010074 <_binary_lab4_test_bin_size+0x3ffeff64>
    80003864:	30576073          	csrsi	mtvec,14
    80003868:	400106b7          	lui	x13,0x40010
    8000386c:	00d686b3          	add	x13,x13,x13
    80003870:	10068693          	addi	x13,x13,256 # 40010100 <_binary_lab4_test_bin_size+0x3ffefff0>
    80003874:	fd86d403          	lhu	x8,-40(x13)
    80003878:	417400b3          	sub	x1,x8,x23
    8000387c:	81b5e793          	ori	x15,x11,-2021
    80003880:	40010137          	lui	x2,0x40010
    80003884:	00210133          	add	x2,x2,x2
    80003888:	10010113          	addi	x2,x2,256 # 40010100 <_binary_lab4_test_bin_size+0x3ffefff0>
    8000388c:	f2013c03          	ld	x24,-224(x2)
    80003890:	01267c33          	and	x24,x12,x18
    80003894:	91f9061b          	addiw	x12,x18,-1761
    80003898:	40e2003b          	subw	x0,x4,x14
    8000389c:	40010537          	lui	x10,0x40010
    800038a0:	00a50533          	add	x10,x10,x10
    800038a4:	01854583          	lbu	x11,24(x10) # 40010018 <_binary_lab4_test_bin_size+0x3ffeff08>
    800038a8:	01d74e33          	xor	x28,x14,x29
    800038ac:	417c0cb3          	sub	x25,x24,x23
    800038b0:	14d2e193          	ori	x3,x5,333
    800038b4:	3434f5f3          	csrrci	x11,mtval,9
    800038b8:	41548433          	sub	x8,x9,x21
    800038bc:	00816633          	or	x12,x2,x8
    800038c0:	344295f3          	csrrw	x11,mip,x5
    800038c4:	3047f173          	csrrci	x2,mie,15
    800038c8:	400104b7          	lui	x9,0x40010
    800038cc:	009484b3          	add	x9,x9,x9
    800038d0:	0644b423          	sd	x4,104(x9) # 40010068 <_binary_lab4_test_bin_size+0x3ffeff58>
    800038d4:	400103b7          	lui	x7,0x40010
    800038d8:	007383b3          	add	x7,x7,x7
    800038dc:	10038393          	addi	x7,x7,256 # 40010100 <_binary_lab4_test_bin_size+0x3ffefff0>
    800038e0:	f3f38783          	lb	x15,-193(x7)
    800038e4:	342c5573          	csrrwi	x10,mcause,24
    800038e8:	40940133          	sub	x2,x8,x9
    800038ec:	6f3f8c9b          	addiw	x25,x31,1779
    800038f0:	16487013          	andi	x0,x16,356
    800038f4:	3449faf3          	csrrci	x21,mip,19
    800038f8:	40010a37          	lui	x20,0x40010
    800038fc:	014a0a33          	add	x20,x20,x20
    80003900:	100a0a13          	addi	x20,x20,256 # 40010100 <_binary_lab4_test_bin_size+0x3ffefff0>
    80003904:	fa8a5d83          	lhu	x27,-88(x20)
    80003908:	01c68dbb          	addw	x27,x13,x28
    8000390c:	1a07cd13          	xori	x26,x15,416
    80003910:	41650933          	sub	x18,x10,x22
    80003914:	3444d973          	csrrwi	x18,mip,9
    80003918:	00bf6333          	or	x6,x30,x11
    8000391c:	010def33          	or	x30,x27,x16
    80003920:	3430ed73          	csrrsi	x26,mtval,1
    80003924:	40010bb7          	lui	x23,0x40010
    80003928:	017b8bb3          	add	x23,x23,x23
    8000392c:	100b8b93          	addi	x23,x23,256 # 40010100 <_binary_lab4_test_bin_size+0x3ffefff0>
    80003930:	fd7b8083          	lb	x1,-41(x23)
    80003934:	40010b37          	lui	x22,0x40010
    80003938:	016b0b33          	add	x22,x22,x22
    8000393c:	0eeb2c23          	sw	x14,248(x22) # 400100f8 <_binary_lab4_test_bin_size+0x3ffeffe8>
    80003940:	40010fb7          	lui	x31,0x40010
    80003944:	01ff8fb3          	add	x31,x31,x31
    80003948:	100f8f93          	addi	x31,x31,256 # 40010100 <_binary_lab4_test_bin_size+0x3ffefff0>
    8000394c:	fd0fb203          	ld	x4,-48(x31)
    80003950:	40420eb3          	sub	x29,x4,x4
    80003954:	40010537          	lui	x10,0x40010
    80003958:	00a50533          	add	x10,x10,x10
    8000395c:	10050513          	addi	x10,x10,256 # 40010100 <_binary_lab4_test_bin_size+0x3ffefff0>
    80003960:	fac51123          	sh	x12,-94(x10)
    80003964:	40010937          	lui	x18,0x40010
    80003968:	01290933          	add	x18,x18,x18
    8000396c:	10090913          	addi	x18,x18,256 # 40010100 <_binary_lab4_test_bin_size+0x3ffefff0>
    80003970:	f0893e03          	ld	x28,-248(x18)
    80003974:	01c200bb          	addw	x1,x4,x28
    80003978:	343358f3          	csrrwi	x17,mtval,6
    8000397c:	a4584213          	xori	x4,x16,-1467
    80003980:	30431d73          	csrrw	x26,mie,x6
    80003984:	400109b7          	lui	x19,0x40010
    80003988:	013989b3          	add	x19,x19,x19
    8000398c:	10098993          	addi	x19,x19,256 # 40010100 <_binary_lab4_test_bin_size+0x3ffefff0>
    80003990:	fa299883          	lh	x17,-94(x19)
    80003994:	01a588b3          	add	x17,x11,x26
    80003998:	400107b7          	lui	x15,0x40010
    8000399c:	00f787b3          	add	x15,x15,x15
    800039a0:	0e17a423          	sw	x1,232(x15) # 400100e8 <_binary_lab4_test_bin_size+0x3ffeffd8>
    800039a4:	51fbf713          	andi	x14,x23,1311
    800039a8:	0337011b          	addiw	x2,x14,51
    800039ac:	400101b7          	lui	x3,0x40010
    800039b0:	003181b3          	add	x3,x3,x3
    800039b4:	10018193          	addi	x3,x3,256 # 40010100 <_binary_lab4_test_bin_size+0x3ffefff0>
    800039b8:	f801eb03          	lwu	x22,-128(x3)
    800039bc:	016af1b3          	and	x3,x21,x22
    800039c0:	00520133          	add	x2,x4,x5
    800039c4:	0137ce33          	xor	x28,x15,x19
    800039c8:	004e8e33          	add	x28,x29,x4
    800039cc:	40010337          	lui	x6,0x40010
    800039d0:	00630333          	add	x6,x6,x6
    800039d4:	10030313          	addi	x6,x6,256 # 40010100 <_binary_lab4_test_bin_size+0x3ffefff0>
    800039d8:	fa433823          	sd	x4,-80(x6)
    800039dc:	34486cf3          	csrrsi	x25,mip,16
    800039e0:	01677cb3          	and	x25,x14,x22
    800039e4:	400103b7          	lui	x7,0x40010
    800039e8:	007383b3          	add	x7,x7,x7
    800039ec:	0e439083          	lh	x1,228(x7) # 400100e4 <_binary_lab4_test_bin_size+0x3ffeffd4>
    800039f0:	40010c37          	lui	x24,0x40010
    800039f4:	018c0c33          	add	x24,x24,x24
    800039f8:	100c0c13          	addi	x24,x24,256 # 40010100 <_binary_lab4_test_bin_size+0x3ffefff0>
    800039fc:	f24c5183          	lhu	x3,-220(x24)
    80003a00:	da396893          	ori	x17,x18,-605
    80003a04:	400101b7          	lui	x3,0x40010
    80003a08:	003181b3          	add	x3,x3,x3
    80003a0c:	10018193          	addi	x3,x3,256 # 40010100 <_binary_lab4_test_bin_size+0x3ffefff0>
    80003a10:	fbf1c403          	lbu	x8,-65(x3)
    80003a14:	009404b3          	add	x9,x8,x9
    80003a18:	40010f37          	lui	x30,0x40010
    80003a1c:	01ef0f33          	add	x30,x30,x30
    80003a20:	100f0f13          	addi	x30,x30,256 # 40010100 <_binary_lab4_test_bin_size+0x3ffefff0>
    80003a24:	f21f4a03          	lbu	x20,-223(x30)
    80003a28:	40010837          	lui	x16,0x40010
    80003a2c:	01080833          	add	x16,x16,x16
    80003a30:	04d80023          	sb	x13,64(x16) # 40010040 <_binary_lab4_test_bin_size+0x3ffeff30>
    80003a34:	3426f773          	csrrci	x14,mcause,13
    80003a38:	00d78db3          	add	x27,x15,x13
    80003a3c:	40010437          	lui	x8,0x40010
    80003a40:	00840433          	add	x8,x8,x8
    80003a44:	04643423          	sd	x6,72(x8) # 40010048 <_binary_lab4_test_bin_size+0x3ffeff38>
    80003a48:	a1b68b1b          	addiw	x22,x13,-1509
    80003a4c:	41b50fbb          	subw	x31,x10,x27
    80003a50:	40eb82bb          	subw	x5,x23,x14
    80003a54:	40010e37          	lui	x28,0x40010
    80003a58:	01ce0e33          	add	x28,x28,x28
    80003a5c:	0e3e0403          	lb	x8,227(x28) # 400100e3 <_binary_lab4_test_bin_size+0x3ffeffd3>
    80003a60:	40888333          	sub	x6,x17,x8
    80003a64:	0032eb33          	or	x22,x5,x3
    80003a68:	30596ef3          	csrrsi	x29,mtvec,18
    80003a6c:	30409073          	csrw	mie,x1
    80003a70:	00f0f833          	and	x16,x1,x15
    80003a74:	c51c4f93          	xori	x31,x24,-943
    80003a78:	fcc0cc13          	xori	x24,x1,-52
    80003a7c:	84a96813          	ori	x16,x18,-1974
    80003a80:	40010537          	lui	x10,0x40010
    80003a84:	00a50533          	add	x10,x10,x10
    80003a88:	0d351223          	sh	x19,196(x10) # 400100c4 <_binary_lab4_test_bin_size+0x3ffeffb4>
    80003a8c:	400106b7          	lui	x13,0x40010
    80003a90:	00d686b3          	add	x13,x13,x13
    80003a94:	10068693          	addi	x13,x13,256 # 40010100 <_binary_lab4_test_bin_size+0x3ffefff0>
    80003a98:	f6e6c883          	lbu	x17,-146(x13)
    80003a9c:	011c6033          	or	x0,x24,x17
    80003aa0:	410b85bb          	subw	x11,x23,x16
    80003aa4:	400105b7          	lui	x11,0x40010
    80003aa8:	00b585b3          	add	x11,x11,x11
    80003aac:	10058593          	addi	x11,x11,256 # 40010100 <_binary_lab4_test_bin_size+0x3ffefff0>
    80003ab0:	fee5a423          	sw	x14,-24(x11)
    80003ab4:	304098f3          	csrrw	x17,mie,x1
    80003ab8:	015b05b3          	add	x11,x22,x21
    80003abc:	01c40dbb          	addw	x27,x8,x28
    80003ac0:	30565573          	csrrwi	x10,mtvec,12
    80003ac4:	3050fef3          	csrrci	x29,mtvec,1
    80003ac8:	00bf8bb3          	add	x23,x31,x11
    80003acc:	40010e37          	lui	x28,0x40010
    80003ad0:	01ce0e33          	add	x28,x28,x28
    80003ad4:	0d6e3c23          	sd	x22,216(x28) # 400100d8 <_binary_lab4_test_bin_size+0x3ffeffc8>
    80003ad8:	40010f37          	lui	x30,0x40010
    80003adc:	01ef0f33          	add	x30,x30,x30
    80003ae0:	100f0f13          	addi	x30,x30,256 # 40010100 <_binary_lab4_test_bin_size+0x3ffefff0>
    80003ae4:	ff7f3023          	sd	x23,-32(x30)
    80003ae8:	40010537          	lui	x10,0x40010
    80003aec:	00a50533          	add	x10,x10,x10
    80003af0:	10050513          	addi	x10,x10,256 # 40010100 <_binary_lab4_test_bin_size+0x3ffefff0>
    80003af4:	fbf50503          	lb	x10,-65(x10)
    80003af8:	013505bb          	addw	x11,x10,x19
    80003afc:	30465673          	csrrwi	x12,mie,12
    80003b00:	41838abb          	subw	x21,x7,x24
    80003b04:	3448d473          	csrrwi	x8,mip,17
    80003b08:	343c77f3          	csrrci	x15,mtval,24
    80003b0c:	40010f37          	lui	x30,0x40010
    80003b10:	01ef0f33          	add	x30,x30,x30
    80003b14:	100f0f13          	addi	x30,x30,256 # 40010100 <_binary_lab4_test_bin_size+0x3ffefff0>
    80003b18:	000f1d03          	lh	x26,0(x30)
    80003b1c:	01fd7333          	and	x6,x26,x31
    80003b20:	1dcb891b          	addiw	x18,x23,476
    80003b24:	327f099b          	addiw	x19,x30,807
    80003b28:	400104b7          	lui	x9,0x40010
    80003b2c:	009484b3          	add	x9,x9,x9
    80003b30:	05449123          	sh	x20,66(x9) # 40010042 <_binary_lab4_test_bin_size+0x3ffeff32>
    80003b34:	5ca0c113          	xori	x2,x1,1482
    80003b38:	40010e37          	lui	x28,0x40010
    80003b3c:	01ce0e33          	add	x28,x28,x28
    80003b40:	100e0e13          	addi	x28,x28,256 # 40010100 <_binary_lab4_test_bin_size+0x3ffefff0>
    80003b44:	f20e1783          	lh	x15,-224(x28)
    80003b48:	400107b7          	lui	x15,0x40010
    80003b4c:	00f787b3          	add	x15,x15,x15
    80003b50:	10078793          	addi	x15,x15,256 # 40010100 <_binary_lab4_test_bin_size+0x3ffefff0>
    80003b54:	f0a79a83          	lh	x21,-246(x15)
    80003b58:	40010d37          	lui	x26,0x40010
    80003b5c:	01ad0d33          	add	x26,x26,x26
    80003b60:	0d2d0b03          	lb	x22,210(x26) # 400100d2 <_binary_lab4_test_bin_size+0x3ffeffc2>
    80003b64:	000b4933          	xor	x18,x22,x0
    80003b68:	400106b7          	lui	x13,0x40010
    80003b6c:	00d686b3          	add	x13,x13,x13
    80003b70:	04669403          	lh	x8,70(x13) # 40010046 <_binary_lab4_test_bin_size+0x3ffeff36>
    80003b74:	400107b7          	lui	x15,0x40010
    80003b78:	00f787b3          	add	x15,x15,x15
    80003b7c:	10078793          	addi	x15,x15,256 # 40010100 <_binary_lab4_test_bin_size+0x3ffefff0>
    80003b80:	f6d7bc23          	sd	x13,-136(x15)
    80003b84:	400109b7          	lui	x19,0x40010
    80003b88:	013989b3          	add	x19,x19,x19
    80003b8c:	05f98f03          	lb	x30,95(x19) # 4001005f <_binary_lab4_test_bin_size+0x3ffeff4f>
    80003b90:	fef26613          	ori	x12,x4,-17
    80003b94:	40268333          	sub	x6,x13,x2
    80003b98:	857c001b          	addiw	x0,x24,-1961
    80003b9c:	8b2a0193          	addi	x3,x20,-1870
    80003ba0:	304e8a1b          	addiw	x20,x29,772
    80003ba4:	40010937          	lui	x18,0x40010
    80003ba8:	01290933          	add	x18,x18,x18
    80003bac:	10090913          	addi	x18,x18,256 # 40010100 <_binary_lab4_test_bin_size+0x3ffefff0>
    80003bb0:	fd895a03          	lhu	x20,-40(x18)
    80003bb4:	005a6f33          	or	x30,x20,x5
    80003bb8:	34481873          	csrrw	x16,mip,x16
    80003bbc:	3054db73          	csrrwi	x22,mtvec,9
    80003bc0:	00f2e6b3          	or	x13,x5,x15
    80003bc4:	11c54f13          	xori	x30,x10,284
    80003bc8:	40010b37          	lui	x22,0x40010
    80003bcc:	016b0b33          	add	x22,x22,x22
    80003bd0:	100b0b13          	addi	x22,x22,256 # 40010100 <_binary_lab4_test_bin_size+0x3ffefff0>
    80003bd4:	f24b2b83          	lw	x23,-220(x22)
    80003bd8:	e63ee913          	ori	x18,x29,-413
    80003bdc:	40010837          	lui	x16,0x40010
    80003be0:	01080833          	add	x16,x16,x16
    80003be4:	10080813          	addi	x16,x16,256 # 40010100 <_binary_lab4_test_bin_size+0x3ffefff0>
    80003be8:	fbc80d83          	lb	x27,-68(x16)
    80003bec:	986ac893          	xori	x17,x21,-1658
    80003bf0:	40010a37          	lui	x20,0x40010
    80003bf4:	014a0a33          	add	x20,x20,x20
    80003bf8:	01ca2483          	lw	x9,28(x20) # 4001001c <_binary_lab4_test_bin_size+0x3ffeff0c>
    80003bfc:	009d70b3          	and	x1,x26,x9
    80003c00:	305d7173          	csrrci	x2,mtvec,26
    80003c04:	40010fb7          	lui	x31,0x40010
    80003c08:	01ff8fb3          	add	x31,x31,x31
    80003c0c:	100f8f93          	addi	x31,x31,256 # 40010100 <_binary_lab4_test_bin_size+0x3ffefff0>
    80003c10:	f65fce83          	lbu	x29,-155(x31)
    80003c14:	40010f37          	lui	x30,0x40010
    80003c18:	01ef0f33          	add	x30,x30,x30
    80003c1c:	030f3403          	ld	x8,48(x30) # 40010030 <_binary_lab4_test_bin_size+0x3ffeff20>
    80003c20:	40010db7          	lui	x27,0x40010
    80003c24:	01bd8db3          	add	x27,x27,x27
    80003c28:	070d9883          	lh	x17,112(x27) # 40010070 <_binary_lab4_test_bin_size+0x3ffeff60>
    80003c2c:	40010437          	lui	x8,0x40010
    80003c30:	00840433          	add	x8,x8,x8
    80003c34:	10040413          	addi	x8,x8,256 # 40010100 <_binary_lab4_test_bin_size+0x3ffefff0>
    80003c38:	fc541c23          	sh	x5,-40(x8)
    80003c3c:	40010b37          	lui	x22,0x40010
    80003c40:	016b0b33          	add	x22,x22,x22
    80003c44:	0d7b0203          	lb	x4,215(x22) # 400100d7 <_binary_lab4_test_bin_size+0x3ffeffc7>
    80003c48:	9b798913          	addi	x18,x19,-1609
    80003c4c:	418c863b          	subw	x12,x25,x24
    80003c50:	013409bb          	addw	x19,x8,x19
    80003c54:	30576773          	csrrsi	x14,mtvec,14
    80003c58:	343e9d73          	csrrw	x26,mtval,x29
    80003c5c:	41248433          	sub	x8,x9,x18
    80003c60:	40010337          	lui	x6,0x40010
    80003c64:	00630333          	add	x6,x6,x6
    80003c68:	06732a23          	sw	x7,116(x6) # 40010074 <_binary_lab4_test_bin_size+0x3ffeff64>
    80003c6c:	278f0e9b          	addiw	x29,x30,632
    80003c70:	1aacf013          	andi	x0,x25,426
    80003c74:	40010537          	lui	x10,0x40010
    80003c78:	00a50533          	add	x10,x10,x10
    80003c7c:	0c853403          	ld	x8,200(x10) # 400100c8 <_binary_lab4_test_bin_size+0x3ffeffb8>
    80003c80:	41be7a13          	andi	x20,x28,1051
    80003c84:	400100b7          	lui	x1,0x40010
    80003c88:	001080b3          	add	x1,x1,x1
    80003c8c:	10008093          	addi	x1,x1,256 # 40010100 <_binary_lab4_test_bin_size+0x3ffefff0>
    80003c90:	ff30b823          	sd	x19,-16(x1)
    80003c94:	40010437          	lui	x8,0x40010
    80003c98:	00840433          	add	x8,x8,x8
    80003c9c:	10040413          	addi	x8,x8,256 # 40010100 <_binary_lab4_test_bin_size+0x3ffefff0>
    80003ca0:	fae45083          	lhu	x1,-82(x8)
    80003ca4:	304cf573          	csrrci	x10,mie,25
    80003ca8:	40010537          	lui	x10,0x40010
    80003cac:	00a50533          	add	x10,x10,x10
    80003cb0:	03455a03          	lhu	x20,52(x10) # 40010034 <_binary_lab4_test_bin_size+0x3ffeff24>
    80003cb4:	0142c3b3          	xor	x7,x5,x20
    80003cb8:	01af0eb3          	add	x29,x30,x26
    80003cbc:	3054eff3          	csrrsi	x31,mtvec,9
    80003cc0:	400109b7          	lui	x19,0x40010
    80003cc4:	013989b3          	add	x19,x19,x19
    80003cc8:	0659b423          	sd	x5,104(x19) # 40010068 <_binary_lab4_test_bin_size+0x3ffeff58>
    80003ccc:	41a98bb3          	sub	x23,x19,x26
    80003cd0:	40010437          	lui	x8,0x40010
    80003cd4:	00840433          	add	x8,x8,x8
    80003cd8:	10040413          	addi	x8,x8,256 # 40010100 <_binary_lab4_test_bin_size+0x3ffefff0>
    80003cdc:	f94408a3          	sb	x20,-111(x8)
    80003ce0:	00f6c033          	xor	x0,x13,x15
    80003ce4:	400105b7          	lui	x11,0x40010
    80003ce8:	00b585b3          	add	x11,x11,x11
    80003cec:	10058593          	addi	x11,x11,256 # 40010100 <_binary_lab4_test_bin_size+0x3ffefff0>
    80003cf0:	fc259c83          	lh	x25,-62(x11)
    80003cf4:	40010cb7          	lui	x25,0x40010
    80003cf8:	019c8cb3          	add	x25,x25,x25
    80003cfc:	100c8c93          	addi	x25,x25,256 # 40010100 <_binary_lab4_test_bin_size+0x3ffefff0>
    80003d00:	fa8cbf03          	ld	x30,-88(x25)
    80003d04:	01e806bb          	addw	x13,x16,x30
    80003d08:	40010c37          	lui	x24,0x40010
    80003d0c:	018c0c33          	add	x24,x24,x24
    80003d10:	100c0c13          	addi	x24,x24,256 # 40010100 <_binary_lab4_test_bin_size+0x3ffefff0>
    80003d14:	f60c3303          	ld	x6,-160(x24)
    80003d18:	40010d37          	lui	x26,0x40010
    80003d1c:	01ad0d33          	add	x26,x26,x26
    80003d20:	100d0d13          	addi	x26,x26,256 # 40010100 <_binary_lab4_test_bin_size+0x3ffefff0>
    80003d24:	f92d5503          	lhu	x10,-110(x26)
    80003d28:	d1f26013          	ori	x0,x4,-737
    80003d2c:	40010237          	lui	x4,0x40010
    80003d30:	00420233          	add	x4,x4,x4
    80003d34:	0c422c03          	lw	x24,196(x4) # 400100c4 <_binary_lab4_test_bin_size+0x3ffeffb4>
    80003d38:	018c0ab3          	add	x21,x24,x24
    80003d3c:	34289473          	csrrw	x8,mcause,x17
    80003d40:	34346973          	csrrsi	x18,mtval,8
    80003d44:	013541b3          	xor	x3,x10,x19
    80003d48:	3052ecf3          	csrrsi	x25,mtvec,5
    80003d4c:	40010237          	lui	x4,0x40010
    80003d50:	00420233          	add	x4,x4,x4
    80003d54:	10020213          	addi	x4,x4,256 # 40010100 <_binary_lab4_test_bin_size+0x3ffefff0>
    80003d58:	f1c24683          	lbu	x13,-228(x4) # ffffffffffffff1c <_binary_lab4_test_bin_end+0xffffffff7ffdfe0c>
    80003d5c:	bfb68313          	addi	x6,x13,-1029
    80003d60:	400108b7          	lui	x17,0x40010
    80003d64:	011888b3          	add	x17,x17,x17
    80003d68:	06688123          	sb	x6,98(x17) # 40010062 <_binary_lab4_test_bin_size+0x3ffeff52>
    80003d6c:	344fd473          	csrrwi	x8,mip,31
    80003d70:	00d343b3          	xor	x7,x6,x13
    80003d74:	40750ab3          	sub	x21,x10,x7
    80003d78:	40010537          	lui	x10,0x40010
    80003d7c:	00a50533          	add	x10,x10,x10
    80003d80:	0e053f83          	ld	x31,224(x10) # 400100e0 <_binary_lab4_test_bin_size+0x3ffeffd0>
    80003d84:	011c0433          	add	x8,x24,x17
    80003d88:	30565473          	csrrwi	x8,mtvec,12
    80003d8c:	017ec1b3          	xor	x3,x29,x23
    80003d90:	b448069b          	addiw	x13,x16,-1212
    80003d94:	400101b7          	lui	x3,0x40010
    80003d98:	003181b3          	add	x3,x3,x3
    80003d9c:	10018193          	addi	x3,x3,256 # 40010100 <_binary_lab4_test_bin_size+0x3ffefff0>
    80003da0:	f101d683          	lhu	x13,-240(x3)
    80003da4:	cdcdf113          	andi	x2,x27,-804
    80003da8:	0178c933          	xor	x18,x17,x23
    80003dac:	00844033          	xor	x0,x8,x8
    80003db0:	3040fcf3          	csrrci	x25,mie,1
    80003db4:	011340b3          	xor	x1,x6,x17
    80003db8:	40010db7          	lui	x27,0x40010
    80003dbc:	01bd8db3          	add	x27,x27,x27
    80003dc0:	0dad9a83          	lh	x21,218(x27) # 400100da <_binary_lab4_test_bin_size+0x3ffeffca>
    80003dc4:	016c0abb          	addw	x21,x24,x22
    80003dc8:	6e497993          	andi	x19,x18,1764
    80003dcc:	30526a73          	csrrsi	x20,mtvec,4
    80003dd0:	400108b7          	lui	x17,0x40010
    80003dd4:	011888b3          	add	x17,x17,x17
    80003dd8:	10088893          	addi	x17,x17,256 # 40010100 <_binary_lab4_test_bin_size+0x3ffefff0>
    80003ddc:	f688d103          	lhu	x2,-152(x17)
    80003de0:	01427d33          	and	x26,x4,x20
    80003de4:	343cfe73          	csrrci	x28,mtval,25
    80003de8:	dd568213          	addi	x4,x13,-555
    80003dec:	00cbc733          	xor	x14,x23,x12
    80003df0:	40010f37          	lui	x30,0x40010
    80003df4:	01ef0f33          	add	x30,x30,x30
    80003df8:	03bf3423          	sd	x27,40(x30) # 40010028 <_binary_lab4_test_bin_size+0x3ffeff18>
    80003dfc:	40010d37          	lui	x26,0x40010
    80003e00:	01ad0d33          	add	x26,x26,x26
    80003e04:	100d0d13          	addi	x26,x26,256 # 40010100 <_binary_lab4_test_bin_size+0x3ffefff0>
    80003e08:	fc8d3403          	ld	x8,-56(x26)
    80003e0c:	db744d13          	xori	x26,x8,-585
    80003e10:	55ae041b          	addiw	x8,x28,1370
    80003e14:	d3280793          	addi	x15,x16,-718
    80003e18:	34291f73          	csrrw	x30,mcause,x18
    80003e1c:	f8bbec13          	ori	x24,x23,-117
    80003e20:	40010a37          	lui	x20,0x40010
    80003e24:	014a0a33          	add	x20,x20,x20
    80003e28:	100a0a13          	addi	x20,x20,256 # 40010100 <_binary_lab4_test_bin_size+0x3ffefff0>
    80003e2c:	fa4a0423          	sb	x4,-88(x20)
    80003e30:	19acf213          	andi	x4,x25,410
    80003e34:	40010337          	lui	x6,0x40010
    80003e38:	00630333          	add	x6,x6,x6
    80003e3c:	10030313          	addi	x6,x6,256 # 40010100 <_binary_lab4_test_bin_size+0x3ffefff0>
    80003e40:	ffe307a3          	sb	x30,-17(x6)
    80003e44:	40010d37          	lui	x26,0x40010
    80003e48:	01ad0d33          	add	x26,x26,x26
    80003e4c:	100d0d13          	addi	x26,x26,256 # 40010100 <_binary_lab4_test_bin_size+0x3ffefff0>
    80003e50:	fb4d2623          	sw	x20,-84(x26)
    80003e54:	40010837          	lui	x16,0x40010
    80003e58:	01080833          	add	x16,x16,x16
    80003e5c:	10080813          	addi	x16,x16,256 # 40010100 <_binary_lab4_test_bin_size+0x3ffefff0>
    80003e60:	f4081e23          	sh	x0,-164(x16)
    80003e64:	400109b7          	lui	x19,0x40010
    80003e68:	013989b3          	add	x19,x19,x19
    80003e6c:	10098993          	addi	x19,x19,256 # 40010100 <_binary_lab4_test_bin_size+0x3ffefff0>
    80003e70:	f5a9da03          	lhu	x20,-166(x19)
    80003e74:	19cf7693          	andi	x13,x30,412
    80003e78:	40010837          	lui	x16,0x40010
    80003e7c:	01080833          	add	x16,x16,x16
    80003e80:	10080813          	addi	x16,x16,256 # 40010100 <_binary_lab4_test_bin_size+0x3ffefff0>
    80003e84:	fa380b23          	sb	x3,-74(x16)
    80003e88:	01e6f233          	and	x4,x13,x30
    80003e8c:	01f1f1b3          	and	x3,x3,x31
    80003e90:	402c0cbb          	subw	x25,x24,x2
    80003e94:	1c324913          	xori	x18,x4,451
    80003e98:	006aeab3          	or	x21,x21,x6
    80003e9c:	34459273          	csrrw	x4,mip,x11
    80003ea0:	4bbbe893          	ori	x17,x23,1211
    80003ea4:	40010137          	lui	x2,0x40010
    80003ea8:	00210133          	add	x2,x2,x2
    80003eac:	07812a83          	lw	x21,120(x2) # 40010078 <_binary_lab4_test_bin_size+0x3ffeff68>
    80003eb0:	3411d9f3          	csrrwi	x19,mepc,3
    80003eb4:	bc2ec093          	xori	x1,x29,-1086
    80003eb8:	40010637          	lui	x12,0x40010
    80003ebc:	00c60633          	add	x12,x12,x12
    80003ec0:	10060613          	addi	x12,x12,256 # 40010100 <_binary_lab4_test_bin_size+0x3ffefff0>
    80003ec4:	fa262e23          	sw	x2,-68(x12)
    80003ec8:	006e61b3          	or	x3,x28,x6
    80003ecc:	ad67859b          	addiw	x11,x15,-1322
    80003ed0:	008ee2b3          	or	x5,x29,x8
    80003ed4:	400102b7          	lui	x5,0x40010
    80003ed8:	005282b3          	add	x5,x5,x5
    80003edc:	10028293          	addi	x5,x5,256 # 40010100 <_binary_lab4_test_bin_size+0x3ffefff0>
    80003ee0:	f5a29f03          	lh	x30,-166(x5)
    80003ee4:	40010737          	lui	x14,0x40010
    80003ee8:	00e70733          	add	x14,x14,x14
    80003eec:	08c72803          	lw	x16,140(x14) # 4001008c <_binary_lab4_test_bin_size+0x3ffeff7c>
    80003ef0:	00984233          	xor	x4,x16,x9
    80003ef4:	40010537          	lui	x10,0x40010
    80003ef8:	00a50533          	add	x10,x10,x10
    80003efc:	10050513          	addi	x10,x10,256 # 40010100 <_binary_lab4_test_bin_size+0x3ffefff0>
    80003f00:	f8c51883          	lh	x17,-116(x10)
    80003f04:	40010837          	lui	x16,0x40010
    80003f08:	01080833          	add	x16,x16,x16
    80003f0c:	00482c23          	sw	x4,24(x16) # 40010018 <_binary_lab4_test_bin_size+0x3ffeff08>
    80003f10:	34247073          	csrci	mcause,8
    80003f14:	40010237          	lui	x4,0x40010
    80003f18:	00420233          	add	x4,x4,x4
    80003f1c:	10020213          	addi	x4,x4,256 # 40010100 <_binary_lab4_test_bin_size+0x3ffefff0>
    80003f20:	f0023f83          	ld	x31,-256(x4) # ffffffffffffff00 <_binary_lab4_test_bin_end+0xffffffff7ffdfdf0>
    80003f24:	400102b7          	lui	x5,0x40010
    80003f28:	005282b3          	add	x5,x5,x5
    80003f2c:	01228da3          	sb	x18,27(x5) # 4001001b <_binary_lab4_test_bin_size+0x3ffeff0b>
    80003f30:	30425373          	csrrwi	x6,mie,4
    80003f34:	a763e513          	ori	x10,x7,-1418
    80003f38:	40010737          	lui	x14,0x40010
    80003f3c:	00e70733          	add	x14,x14,x14
    80003f40:	10070713          	addi	x14,x14,256 # 40010100 <_binary_lab4_test_bin_size+0x3ffefff0>
    80003f44:	fac72b83          	lw	x23,-84(x14)
    80003f48:	1a2f0b1b          	addiw	x22,x30,418
    80003f4c:	30eb6013          	ori	x0,x22,782
    80003f50:	40010137          	lui	x2,0x40010
    80003f54:	00210133          	add	x2,x2,x2
    80003f58:	10010113          	addi	x2,x2,256 # 40010100 <_binary_lab4_test_bin_size+0x3ffefff0>
    80003f5c:	f3c16c03          	lwu	x24,-196(x2)
    80003f60:	40010f37          	lui	x30,0x40010
    80003f64:	01ef0f33          	add	x30,x30,x30
    80003f68:	100f0f13          	addi	x30,x30,256 # 40010100 <_binary_lab4_test_bin_size+0x3ffefff0>
    80003f6c:	f50f3e83          	ld	x29,-176(x30)
    80003f70:	7598fb13          	andi	x22,x17,1881
    80003f74:	019873b3          	and	x7,x16,x25
    80003f78:	6213c213          	xori	x4,x7,1569
    80003f7c:	40010a37          	lui	x20,0x40010
    80003f80:	014a0a33          	add	x20,x20,x20
    80003f84:	100a0a13          	addi	x20,x20,256 # 40010100 <_binary_lab4_test_bin_size+0x3ffefff0>
    80003f88:	fc1a2423          	sw	x1,-56(x20)
    80003f8c:	400107b7          	lui	x15,0x40010
    80003f90:	00f787b3          	add	x15,x15,x15
    80003f94:	10078793          	addi	x15,x15,256 # 40010100 <_binary_lab4_test_bin_size+0x3ffefff0>
    80003f98:	ff478ea3          	sb	x20,-3(x15)
    80003f9c:	400101b7          	lui	x3,0x40010
    80003fa0:	003181b3          	add	x3,x3,x3
    80003fa4:	10018193          	addi	x3,x3,256 # 40010100 <_binary_lab4_test_bin_size+0x3ffefff0>
    80003fa8:	f3618703          	lb	x14,-202(x3)
    80003fac:	9c760d93          	addi	x27,x12,-1593
    80003fb0:	41588f3b          	subw	x30,x17,x21
    80003fb4:	400108b7          	lui	x17,0x40010
    80003fb8:	011888b3          	add	x17,x17,x17
    80003fbc:	0a88ba83          	ld	x21,168(x17) # 400100a8 <_binary_lab4_test_bin_size+0x3ffeff98>
    80003fc0:	00fa8533          	add	x10,x21,x15
    80003fc4:	d1a0cc13          	xori	x24,x1,-742
    80003fc8:	011df6b3          	and	x13,x27,x17
    80003fcc:	0154f5b3          	and	x11,x9,x21
    80003fd0:	40010c37          	lui	x24,0x40010
    80003fd4:	018c0c33          	add	x24,x24,x24
    80003fd8:	100c0c13          	addi	x24,x24,256 # 40010100 <_binary_lab4_test_bin_size+0x3ffefff0>
    80003fdc:	fb3c0ca3          	sb	x19,-71(x24)
    80003fe0:	6a7d8493          	addi	x9,x27,1703
    80003fe4:	cbc8c293          	xori	x5,x17,-836
    80003fe8:	386d8f9b          	addiw	x31,x27,902
    80003fec:	40010eb7          	lui	x29,0x40010
    80003ff0:	01de8eb3          	add	x29,x29,x29
    80003ff4:	100e8e93          	addi	x29,x29,256 # 40010100 <_binary_lab4_test_bin_size+0x3ffefff0>
    80003ff8:	f98eef83          	lwu	x31,-104(x29)
    80003ffc:	0a0a4f93          	xori	x31,x20,160
    80004000:	6e140593          	addi	x11,x8,1761
    80004004:	f42bf613          	andi	x12,x23,-190
    80004008:	01810cbb          	addw	x25,x2,x24
    8000400c:	17636113          	ori	x2,x6,374
    80004010:	305417f3          	csrrw	x15,mtvec,x8
    80004014:	342a9ef3          	csrrw	x29,mcause,x21
    80004018:	409401b3          	sub	x3,x8,x9
    8000401c:	400101b7          	lui	x3,0x40010
    80004020:	003181b3          	add	x3,x3,x3
    80004024:	10018193          	addi	x3,x3,256 # 40010100 <_binary_lab4_test_bin_size+0x3ffefff0>
    80004028:	f7818ba3          	sb	x24,-137(x3)
    8000402c:	3057d1f3          	csrrwi	x3,mtvec,15
    80004030:	40010f37          	lui	x30,0x40010
    80004034:	01ef0f33          	add	x30,x30,x30
    80004038:	044f1983          	lh	x19,68(x30) # 40010044 <_binary_lab4_test_bin_size+0x3ffeff34>
    8000403c:	40010437          	lui	x8,0x40010
    80004040:	00840433          	add	x8,x8,x8
    80004044:	10040413          	addi	x8,x8,256 # 40010100 <_binary_lab4_test_bin_size+0x3ffefff0>
    80004048:	f0b42223          	sw	x11,-252(x8)
    8000404c:	40010bb7          	lui	x23,0x40010
    80004050:	017b8bb3          	add	x23,x23,x23
    80004054:	0dabc083          	lbu	x1,218(x23) # 400100da <_binary_lab4_test_bin_size+0x3ffeffca>
    80004058:	400108b7          	lui	x17,0x40010
    8000405c:	011888b3          	add	x17,x17,x17
    80004060:	10088893          	addi	x17,x17,256 # 40010100 <_binary_lab4_test_bin_size+0x3ffefff0>
    80004064:	f808aa23          	sw	x0,-108(x17)
    80004068:	01df053b          	addw	x10,x30,x29
    8000406c:	01e48fbb          	addw	x31,x9,x30
    80004070:	40010cb7          	lui	x25,0x40010
    80004074:	019c8cb3          	add	x25,x25,x25
    80004078:	100c8c93          	addi	x25,x25,256 # 40010100 <_binary_lab4_test_bin_size+0x3ffefff0>
    8000407c:	f2bca623          	sw	x11,-212(x25)
    80004080:	3419fb73          	csrrci	x22,mepc,19
    80004084:	400106b7          	lui	x13,0x40010
    80004088:	00d686b3          	add	x13,x13,x13
    8000408c:	0e06c603          	lbu	x12,224(x13) # 400100e0 <_binary_lab4_test_bin_size+0x3ffeffd0>
    80004090:	00060abb          	addw	x21,x12,x0
    80004094:	e08fcb93          	xori	x23,x31,-504
    80004098:	40b58db3          	sub	x27,x11,x11
    8000409c:	40010cb7          	lui	x25,0x40010
    800040a0:	019c8cb3          	add	x25,x25,x25
    800040a4:	100c8c93          	addi	x25,x25,256 # 40010100 <_binary_lab4_test_bin_size+0x3ffefff0>
    800040a8:	f14c87a3          	sb	x20,-241(x25)
    800040ac:	34136273          	csrrsi	x4,mepc,6
    800040b0:	342cd4f3          	csrrwi	x9,mcause,25
    800040b4:	30526773          	csrrsi	x14,mtvec,4
    800040b8:	40010b37          	lui	x22,0x40010
    800040bc:	016b0b33          	add	x22,x22,x22
    800040c0:	038b3403          	ld	x8,56(x22) # 40010038 <_binary_lab4_test_bin_size+0x3ffeff28>
    800040c4:	d630041b          	addiw	x8,x0,-669
    800040c8:	341579f3          	csrrci	x19,mepc,10
    800040cc:	342193f3          	csrrw	x7,mcause,x3
    800040d0:	343bfbf3          	csrrci	x23,mtval,23
    800040d4:	884c851b          	addiw	x10,x25,-1916
    800040d8:	6f1f021b          	addiw	x4,x30,1777
    800040dc:	400104b7          	lui	x9,0x40010
    800040e0:	009484b3          	add	x9,x9,x9
    800040e4:	10048493          	addi	x9,x9,256 # 40010100 <_binary_lab4_test_bin_size+0x3ffefff0>
    800040e8:	fd84d083          	lhu	x1,-40(x9)
    800040ec:	41370e33          	sub	x28,x14,x19
    800040f0:	34467af3          	csrrci	x21,mip,12
    800040f4:	400109b7          	lui	x19,0x40010
    800040f8:	013989b3          	add	x19,x19,x19
    800040fc:	10098993          	addi	x19,x19,256 # 40010100 <_binary_lab4_test_bin_size+0x3ffefff0>
    80004100:	ffa9db83          	lhu	x23,-6(x19)
    80004104:	41358fb3          	sub	x31,x11,x19
    80004108:	400100b7          	lui	x1,0x40010
    8000410c:	001080b3          	add	x1,x1,x1
    80004110:	0560c483          	lbu	x9,86(x1) # 40010056 <_binary_lab4_test_bin_size+0x3ffeff46>
    80004114:	766b4e13          	xori	x28,x22,1894
    80004118:	40010837          	lui	x16,0x40010
    8000411c:	01080833          	add	x16,x16,x16
    80004120:	10080813          	addi	x16,x16,256 # 40010100 <_binary_lab4_test_bin_size+0x3ffefff0>
    80004124:	f8a85803          	lhu	x16,-118(x16)
    80004128:	2e02e913          	ori	x18,x5,736
    8000412c:	00bb6bb3          	or	x23,x22,x11
    80004130:	96f66d93          	ori	x27,x12,-1681
    80004134:	89dfc813          	xori	x16,x31,-1891
    80004138:	0059fd33          	and	x26,x19,x5
    8000413c:	40010a37          	lui	x20,0x40010
    80004140:	014a0a33          	add	x20,x20,x20
    80004144:	048a3603          	ld	x12,72(x20) # 40010048 <_binary_lab4_test_bin_size+0x3ffeff38>
    80004148:	00c70db3          	add	x27,x14,x12
    8000414c:	40f286b3          	sub	x13,x5,x15
    80004150:	1a88879b          	addiw	x15,x17,424
    80004154:	01137033          	and	x0,x6,x17
    80004158:	00454d33          	xor	x26,x10,x4
    8000415c:	f660cc13          	xori	x24,x1,-154
    80004160:	400106b7          	lui	x13,0x40010
    80004164:	00d686b3          	add	x13,x13,x13
    80004168:	10068693          	addi	x13,x13,256 # 40010100 <_binary_lab4_test_bin_size+0x3ffefff0>
    8000416c:	f186b203          	ld	x4,-232(x13)
    80004170:	0041f733          	and	x14,x3,x4
    80004174:	09b0f993          	andi	x19,x1,155
    80004178:	400100b7          	lui	x1,0x40010
    8000417c:	001080b3          	add	x1,x1,x1
    80004180:	10008093          	addi	x1,x1,256 # 40010100 <_binary_lab4_test_bin_size+0x3ffefff0>
    80004184:	fca09d03          	lh	x26,-54(x1)
    80004188:	40010eb7          	lui	x29,0x40010
    8000418c:	01de8eb3          	add	x29,x29,x29
    80004190:	09fec603          	lbu	x12,159(x29) # 4001009f <_binary_lab4_test_bin_size+0x3ffeff8f>
    80004194:	8c0bc693          	xori	x13,x23,-1856
    80004198:	a71af413          	andi	x8,x21,-1423
    8000419c:	01c50abb          	addw	x21,x10,x28
    800041a0:	2feb009b          	addiw	x1,x22,766
    800041a4:	b1d58a9b          	addiw	x21,x11,-1251
    800041a8:	3055d5f3          	csrrwi	x11,mtvec,11
    800041ac:	00c4e2b3          	or	x5,x9,x12
    800041b0:	30569773          	csrrw	x14,mtvec,x13
    800041b4:	30407373          	csrrci	x6,mie,0
    800041b8:	f7f7ff13          	andi	x30,x15,-129
    800041bc:	40010d37          	lui	x26,0x40010
    800041c0:	01ad0d33          	add	x26,x26,x26
    800041c4:	100d0d13          	addi	x26,x26,256 # 40010100 <_binary_lab4_test_bin_size+0x3ffefff0>
    800041c8:	f86d5203          	lhu	x4,-122(x26)
    800041cc:	0114e7b3          	or	x15,x9,x17
    800041d0:	900d8713          	addi	x14,x27,-1792
    800041d4:	0034cfb3          	xor	x31,x9,x3
    800041d8:	01bccbb3          	xor	x23,x25,x27
    800041dc:	40010ab7          	lui	x21,0x40010
    800041e0:	015a8ab3          	add	x21,x21,x21
    800041e4:	100a8a93          	addi	x21,x21,256 # 40010100 <_binary_lab4_test_bin_size+0x3ffefff0>
    800041e8:	f20abf03          	ld	x30,-224(x21)
    800041ec:	00b58f3b          	addw	x30,x11,x11
    800041f0:	01978933          	add	x18,x15,x25
    800041f4:	dc006993          	ori	x19,x0,-576
    800041f8:	005e66b3          	or	x13,x28,x5
    800041fc:	400102b7          	lui	x5,0x40010
    80004200:	005282b3          	add	x5,x5,x5
    80004204:	10028293          	addi	x5,x5,256 # 40010100 <_binary_lab4_test_bin_size+0x3ffefff0>
    80004208:	fd32c583          	lbu	x11,-45(x5)
    8000420c:	78e2e613          	ori	x12,x5,1934
    80004210:	400104b7          	lui	x9,0x40010
    80004214:	009484b3          	add	x9,x9,x9
    80004218:	10048493          	addi	x9,x9,256 # 40010100 <_binary_lab4_test_bin_size+0x3ffefff0>
    8000421c:	ff74b023          	sd	x23,-32(x9)
    80004220:	ac8ec493          	xori	x9,x29,-1336
    80004224:	cf494813          	xori	x16,x18,-780
    80004228:	3448f473          	csrrci	x8,mip,17
    8000422c:	5af1809b          	addiw	x1,x3,1455
    80004230:	304feb73          	csrrsi	x22,mie,31
    80004234:	40010d37          	lui	x26,0x40010
    80004238:	01ad0d33          	add	x26,x26,x26
    8000423c:	078d0823          	sb	x24,112(x26) # 40010070 <_binary_lab4_test_bin_size+0x3ffeff60>
    80004240:	400101b7          	lui	x3,0x40010
    80004244:	003181b3          	add	x3,x3,x3
    80004248:	10018193          	addi	x3,x3,256 # 40010100 <_binary_lab4_test_bin_size+0x3ffefff0>
    8000424c:	f0719623          	sh	x7,-244(x3)
    80004250:	40010ab7          	lui	x21,0x40010
    80004254:	015a8ab3          	add	x21,x21,x21
    80004258:	100a8a93          	addi	x21,x21,256 # 40010100 <_binary_lab4_test_bin_size+0x3ffefff0>
    8000425c:	fa8aec03          	lwu	x24,-88(x21)
    80004260:	40bc03bb          	subw	x7,x24,x11
    80004264:	400102b7          	lui	x5,0x40010
    80004268:	005282b3          	add	x5,x5,x5
    8000426c:	10028293          	addi	x5,x5,256 # 40010100 <_binary_lab4_test_bin_size+0x3ffefff0>
    80004270:	f002b183          	ld	x3,-256(x5)
    80004274:	7a01ec93          	ori	x25,x3,1952
    80004278:	01dac4b3          	xor	x9,x21,x29
    8000427c:	34139cf3          	csrrw	x25,mepc,x7
    80004280:	40010ab7          	lui	x21,0x40010
    80004284:	015a8ab3          	add	x21,x21,x21
    80004288:	100a8a93          	addi	x21,x21,256 # 40010100 <_binary_lab4_test_bin_size+0x3ffefff0>
    8000428c:	fbda9423          	sh	x29,-88(x21)
    80004290:	00150eb3          	add	x29,x10,x1
    80004294:	40010d37          	lui	x26,0x40010
    80004298:	01ad0d33          	add	x26,x26,x26
    8000429c:	100d0d13          	addi	x26,x26,256 # 40010100 <_binary_lab4_test_bin_size+0x3ffefff0>
    800042a0:	fded1c23          	sh	x30,-40(x26)
